ARM GAS  C:\Users\Asus\AppData\Local\Temp\cc7iUwpi.s 			page 1


   1              		.syntax unified
   2              		.cpu cortex-m0plus
   3              		.fpu softvfp
   4              		.eabi_attribute 20, 1
   5              		.eabi_attribute 21, 1
   6              		.eabi_attribute 23, 3
   7              		.eabi_attribute 24, 1
   8              		.eabi_attribute 25, 1
   9              		.eabi_attribute 26, 1
  10              		.eabi_attribute 30, 1
  11              		.eabi_attribute 34, 0
  12              		.eabi_attribute 18, 4
  13              		.thumb
  14              		.syntax unified
  15              		.file	"main.c"
  16              		.text
  17              	.Ltext0:
  18              		.cfi_sections	.debug_frame
  19              		.section	.text.Timer_Interrupt,"ax",%progbits
  20              		.align	2
  21              		.global	Timer_Interrupt
  22              		.code	16
  23              		.thumb_func
  24              		.type	Timer_Interrupt, %function
  25              	Timer_Interrupt:
  26              	.LFB38:
  27              		.file 1 "main.c"
   1:main.c        **** /******************************************************************************
   2:main.c        **** * File Name: main.c
   3:main.c        **** *
   4:main.c        **** * Version: 1.00
   5:main.c        **** *
   6:main.c        **** * Description:  This code example demonstrates how to implement a USB-HID trackpad
   7:main.c        **** *               using PSoC 4100S CapSense.
   8:main.c        **** *
   9:main.c        **** * Related Document: CE216892 USB-HID Trackpad.pdf
  10:main.c        **** *
  11:main.c        **** * Hardware Dependency: CY8CKIT-041-41XX PSoC 4100S Pioneer Kit
  12:main.c        **** *                     (See code example CE216892 for details)
  13:main.c        **** *
  14:main.c        **** ******************************************************************************
  15:main.c        **** * Copyright (2016), Cypress Semiconductor Corporation.
  16:main.c        **** ******************************************************************************
  17:main.c        **** * This software, including source code, documentation and related materials
  18:main.c        **** * ("Software") is owned by Cypress Semiconductor Corporation (Cypress) and is
  19:main.c        **** * protected by and subject to worldwide patent protection (United States and 
  20:main.c        **** * foreign), United States copyright laws and international treaty provisions. 
  21:main.c        **** * Cypress hereby grants to licensee a personal, non-exclusive, non-transferable
  22:main.c        **** * license to copy, use, modify, create derivative works of, and compile the 
  23:main.c        **** * Cypress source code and derivative works for the sole purpose of creating 
  24:main.c        **** * custom software in support of licensee product, such licensee product to be
  25:main.c        **** * used only in conjunction with Cypress's integrated circuit as specified in the
  26:main.c        **** * applicable agreement. Any reproduction, modification, translation, compilation,
  27:main.c        **** * or representation of this Software except as specified above is prohibited 
  28:main.c        **** * without the express written permission of Cypress.
  29:main.c        **** * 
  30:main.c        **** * Disclaimer: THIS SOFTWARE IS PROVIDED AS-IS, WITH NO WARRANTY OF ANY KIND, 
ARM GAS  C:\Users\Asus\AppData\Local\Temp\cc7iUwpi.s 			page 2


  31:main.c        **** * EXPRESS OR IMPLIED, INCLUDING, BUT NOT LIMITED TO, NONINFRINGEMENT, IMPLIED 
  32:main.c        **** * WARRANTIES OF MERCHANTABILITY AND FITNESS FOR A PARTICULAR PURPOSE.
  33:main.c        **** * Cypress reserves the right to make changes to the Software without notice. 
  34:main.c        **** * Cypress does not assume any liability arising out of the application or use
  35:main.c        **** * of Software or any product or circuit described in the Software. Cypress does
  36:main.c        **** * not authorize its products for use as critical components in any products 
  37:main.c        **** * where a malfunction or failure may reasonably be expected to result in 
  38:main.c        **** * significant injury or death ("ACTIVE Risk Product"). By including Cypress's 
  39:main.c        **** * product in a ACTIVE Risk Product, the manufacturer of such system or application
  40:main.c        **** * assumes all risk of such use and in doing so indemnifies Cypress against all
  41:main.c        **** * liability. Use of this Software may be limited by and subject to the applicable
  42:main.c        **** * Cypress software license agreement.
  43:main.c        **** *****************************************************************************/
  44:main.c        **** /*******************************************************************************
  45:main.c        **** *   Included Headers
  46:main.c        **** *******************************************************************************/
  47:main.c        **** #include <project.h>
  48:main.c        **** 
  49:main.c        **** /* Include boolean function definition */
  50:main.c        **** #include <stdbool.h>
  51:main.c        **** #include <cytypes.h>
  52:main.c        **** 
  53:main.c        **** /*******************************************************************************
  54:main.c        **** *   Macros and #define Constants
  55:main.c        **** *******************************************************************************/
  56:main.c        **** 
  57:main.c        **** /* Enable tuner for CapSense tuning. 
  58:main.c        **** *  When tuner is enabled, I2C slave is used to transmit 
  59:main.c        **** *  CapSense tuning data and hence mouse functionality is disabled.
  60:main.c        **** */
  61:main.c        **** #define TUNER_ENABLE                (0u)
  62:main.c        **** #define BUFFER_SIZE                 (16u)
  63:main.c        **** #define CHECKSUM_BYTES              (2u)
  64:main.c        **** #define READ_ONLY_OFFSET            (2u)
  65:main.c        **** #define DUT_ID_CHECK                (0x55u)
  66:main.c        **** 
  67:main.c        **** /* I2C buffer index macros */
  68:main.c        **** #define DUT_ID_INDEX                (0u)
  69:main.c        **** #define HID_DATA_VALID_INDEX        (1u)   
  70:main.c        **** #define BYTES_IN_BUFFER_INDEX       (2u)
  71:main.c        **** #define HID_TYPE_INDEX              (3u)
  72:main.c        **** #define DATA_BYTE1_INDEX            (4u)
  73:main.c        **** #define DATA_BYTE2_INDEX            (5u)
  74:main.c        **** #define DATA_BYTE3_INDEX            (6u)
  75:main.c        **** #define DATA_BYTE4_INDEX            (7u)
  76:main.c        **** #define DATA_BYTE5_INDEX            (8u)
  77:main.c        **** #define DATA_BYTE6_INDEX            (9u)
  78:main.c        **** #define DATA_BYTE7_INDEX            (10u)
  79:main.c        **** #define DATA_BYTE8_INDEX            (11u)
  80:main.c        **** #define DATA_BYTE9_INDEX            (12u)
  81:main.c        **** #define DATA_BYTE10_INDEX           (13u)
  82:main.c        **** #define CHECKSUM_MSB_INDEX          (14u)
  83:main.c        **** #define CHECKSUM_LSB_INDEX          (15u)
  84:main.c        **** 
  85:main.c        **** /* HID macros */
  86:main.c        **** #define MOUSE_FUNCTION				(1u)
  87:main.c        **** #define MOUSE_DATA_BYTES_COUNT      (5u)
ARM GAS  C:\Users\Asus\AppData\Local\Temp\cc7iUwpi.s 			page 3


  88:main.c        **** #define HID_DATA_INVALID            (0u)
  89:main.c        **** #define HID_DATA_VALID              (1u)
  90:main.c        **** 
  91:main.c        **** /* Mouse click function macros */
  92:main.c        **** #define MOUSE_FN_NO_CLICK			(0u)
  93:main.c        **** #define MOUSE_FN_LEFT_CLICK			(1u)
  94:main.c        **** #define MOUSE_FN_RIGHT_CLICK		(2u)
  95:main.c        **** 
  96:main.c        **** /* Trackpad X and Y coordinate related macros */
  97:main.c        **** #define X_POSITION                  (0u)
  98:main.c        **** #define Y_POSITION                  (1u)
  99:main.c        **** #define X_POSITION_NEGATIVE         (2u)
 100:main.c        **** #define Y_POSITION_NEGATIVE         (1u)
 101:main.c        **** 
 102:main.c        **** /* Threshold for the delta position after which 
 103:main.c        **** *  position is scaled by a factor of 2.
 104:main.c        **** */
 105:main.c        **** #define DELTA_POS_MULT_THRESHOLD    (10u)
 106:main.c        **** 
 107:main.c        **** /* Device power mode related macros */
 108:main.c        **** #define LOOP_TIME_FASTSCANMODE      (20u)
 109:main.c        **** #define LOOP_TIME_SLOWSCANMODE      (150u)
 110:main.c        **** #define ILO_CLOCK_FACTOR            (40u)
 111:main.c        ****     
 112:main.c        **** /* Refresh rate control parameters */    
 113:main.c        **** /* Scan period is LOOP_TIME_FASTSCANMODE in FAST_SCAN_MODE */    
 114:main.c        **** #define WDT_TIMEOUT_FAST_SCAN       (ILO_CLOCK_FACTOR * LOOP_TIME_FASTSCANMODE) 
 115:main.c        ****     
 116:main.c        ****  /* Scan period is LOOP_TIME_SLOWSCANMODE in SLOW_SCAN_MODE */    
 117:main.c        **** #define WDT_TIMEOUT_SLOW_SCAN       (ILO_CLOCK_FACTOR * LOOP_TIME_SLOWSCANMODE)
 118:main.c        **** 
 119:main.c        **** /* This timeout is for device scan mode shift from fast scan to slow scan if there is
 120:main.c        ****    no proximity  detected. 2
 121:main.c        **** */
 122:main.c        **** #define SCANMODE_TIMEOUT_VALUE      (150u)
 123:main.c        **** 
 124:main.c        **** #define FALSE                       (false)
 125:main.c        **** #define TRUE                        (true)
 126:main.c        **** 
 127:main.c        **** #define LED_ON                      (0u)
 128:main.c        **** #define LED_OFF                     (1u)
 129:main.c        ****     
 130:main.c        **** /* Interrupt number for watchdog */    
 131:main.c        **** #define WDT_IRQ_NUMBER              (6u)
 132:main.c        ****     
 133:main.c        **** /* Software timer reset value */
 134:main.c        **** #define SW_TIMER_RESET              (0u)  
 135:main.c        **** 
 136:main.c        **** /*******************************************************************************
 137:main.c        **** *   Module Variable and Constant Declarations with Applicable Initializations
 138:main.c        **** *******************************************************************************/
 139:main.c        **** /* Finite state machine states for device operation */
 140:main.c        **** typedef enum
 141:main.c        **** {
 142:main.c        ****     SENSOR_SCAN =            1u,   /* Sensor is scanned in this state */
 143:main.c        ****     WAIT_FOR_SCAN_COMPLETE = 2u,   /* CPU is put to sleep in this state */
 144:main.c        ****     PROCESS_DATA =           3u,   /* Sensor data is processed */
ARM GAS  C:\Users\Asus\AppData\Local\Temp\cc7iUwpi.s 			page 4


 145:main.c        ****     DEEP_SLEEP =             4u    /* Device is put to deep sleep */
 146:main.c        **** } DEVICE_STATE;
 147:main.c        **** 
 148:main.c        **** /* Firmware implements two refresh rates for reducing average power consumption */
 149:main.c        **** typedef enum
 150:main.c        **** {
 151:main.c        ****     SLOW_SCAN_MODE = 0u,
 152:main.c        ****     FAST_SCAN_MODE = 1u
 153:main.c        **** } SCAN_MODE;
 154:main.c        **** 
 155:main.c        **** /* This variable is used to indicate the power mode */
 156:main.c        **** SCAN_MODE deviceScanMode;
 157:main.c        **** 
 158:main.c        **** /* Variable indicates if trackpad is touched or not */
 159:main.c        **** uint16 fingerStatus;
 160:main.c        **** 
 161:main.c        **** /* Variable to store X, Y touch coordinates */
 162:main.c        **** uint16 touchPosition[2];
 163:main.c        **** 
 164:main.c        **** /* Contains previous active X, Y coordinates of trackpad */
 165:main.c        **** uint16 prevTouchPosition[2];
 166:main.c        **** 
 167:main.c        **** /* Contains DeltaX and DeltaY trackpad coordinates, used for HID (mouse) */
 168:main.c        **** uint16 diffPosition[2];
 169:main.c        **** 
 170:main.c        **** /* Contains information of whether DeltaX and DeltaY is negative */
 171:main.c        **** uint8 xyDirectionData;
 172:main.c        **** 
 173:main.c        **** /* Contains mouse left and right click data */
 174:main.c        **** uint8 mouseClickData;
 175:main.c        **** 
 176:main.c        **** /* I2C buffer to store HID mouse related information */
 177:main.c        **** volatile uint8 ezI2cBuffer[BUFFER_SIZE];
 178:main.c        **** 
 179:main.c        **** /* Variable to check if device woke up because of WDT interrupt or other sources */
 180:main.c        **** volatile uint8 wdtInterruptOccured = FALSE;
 181:main.c        **** 
 182:main.c        **** /* Watchdog timer match value. Device starts with fast scan mode after power-up */
 183:main.c        **** volatile uint32 wdtMatchValue = WDT_TIMEOUT_FAST_SCAN;
 184:main.c        **** 
 185:main.c        **** /*******************************************************************************
 186:main.c        **** *  Function Declarations
 187:main.c        **** *******************************************************************************/
 188:main.c        **** 
 189:main.c        **** /* Function prototype for CapSense parameter initialization */
 190:main.c        **** void capSenseInit(void);
 191:main.c        **** 
 192:main.c        **** /* Function prototype to process trackpad data and update I2C buffer */
 193:main.c        **** void mouseDataProcess(void);
 194:main.c        **** 
 195:main.c        **** /* Function prototype to initialize EZI2C component */
 196:main.c        **** void i2cInit(void);
 197:main.c        **** 
 198:main.c        **** /* Function prototype to update I2C buffer with trackpad and button sensor status*/
 199:main.c        **** void updateI2cBuffer(void);
 200:main.c        **** 
 201:main.c        **** /* Function prototype to start watchdog timer */
ARM GAS  C:\Users\Asus\AppData\Local\Temp\cc7iUwpi.s 			page 5


 202:main.c        **** void WDT_Start(void);
 203:main.c        **** 
 204:main.c        **** /* Function prototype to put the device to deep sleep */
 205:main.c        **** void enterDeepSleepLowPowerMode(void);
 206:main.c        **** 
 207:main.c        **** /* Function that checks if trackpad or button sensors are ON */
 208:main.c        **** bool anyWidgetActive(void);
 209:main.c        **** 
 210:main.c        **** /* API to get WDT match value to generate accurate scan intervals */
 211:main.c        **** void CalibrateWdtMatchValue(void);
 212:main.c        **** 
 213:main.c        **** /******************************************************************************
 214:main.c        **** * Function Name: main
 215:main.c        **** *******************************************************************************
 216:main.c        **** *
 217:main.c        **** * Summary: This funcation implements the state machine for device operation.
 218:main.c        **** *
 219:main.c        **** * Parameters:
 220:main.c        **** *  None.
 221:main.c        **** *
 222:main.c        **** * Return:
 223:main.c        **** *  None.
 224:main.c        **** *
 225:main.c        **** * Theory: 
 226:main.c        **** *   main() performs following functions:
 227:main.c        **** *  1: Initialize the CapSense, EZI2C Components
 228:main.c        **** *  2: There are two modes of operation
 229:main.c        **** *       Slow scan mode : Only gang sensor (all rows & columns of trackpad, left and right 
 230:main.c        **** *                       buttons are ganged) is scanned at LOOP_TIME_SLOWSCANMODE loop time
 231:main.c        **** *       Fast scan mode : Trackpad and button widgets are are scanned at LOOP_TIME_FASTSCANMODE loop
 232:main.c        **** *       By default, device is in fast scan mode. In fast scan mode, all the sensors are scanned
 233:main.c        **** *       individually. If no CapSense widgets are active for SCANMODE_TIMEOUT_VALUE, the operating 
 234:main.c        **** *       mode is changed to slow scan mode to reduce device power consumption.
 235:main.c        **** *  3: Once all the CapSense widgets are scanned, the I2C buffer is updated with the 
 236:main.c        **** *       following information
 237:main.c        **** *       a) LeftClick and RightClick button information is updated
 238:main.c        **** *       b) DeltaX and DeltaY of touch coordinates with sign information is updated
 239:main.c        **** *      All the above data is read by the Host (PSoC 5LP) via I2C interface. The host interfaces 
 240:main.c        **** *      to PC as a USB-HID device.
 241:main.c        **** *  4: After CapSense data is processed, the device is put to deep sleep mode
 242:main.c        **** * 
 243:main.c        **** * Side Effects: None
 244:main.c        **** *
 245:main.c        **** * Note:None
 246:main.c        **** *
 247:main.c        **** *******************************************************************************/
 248:main.c        **** 
 249:main.c        **** int main()
 250:main.c        **** {   
 251:main.c        ****     /* This code implements two application level power modes: 
 252:main.c        ****     *  Fast Scan mode and Slow Scan mode */
 253:main.c        ****     
 254:main.c        ****     /* Start the firmware state machine with sensor scan */
 255:main.c        ****     DEVICE_STATE currentState = SENSOR_SCAN;
 256:main.c        ****     
 257:main.c        ****     /* Variable to check for timeout condition of sensor inactive condition */
 258:main.c        ****     uint32 timeoutCounter = 0u;
ARM GAS  C:\Users\Asus\AppData\Local\Temp\cc7iUwpi.s 			page 6


 259:main.c        ****     
 260:main.c        ****     /* Variable to hold the widget# that should be scanned in FAST_SCAN_MODE */
 261:main.c        ****     uint8 currentWidget = CapSense_TRACKPAD_WDGT_ID;
 262:main.c        ****     
 263:main.c        ****     /* Variable to store the XY touch coordinates */
 264:main.c        ****     uint32 tempCoordinates;
 265:main.c        ****     
 266:main.c        ****     /* Variable to store interrupt state */
 267:main.c        ****     uint32 interruptState = 0u;
 268:main.c        **** 	
 269:main.c        ****     /* Set the current power mode. */
 270:main.c        ****     deviceScanMode = FAST_SCAN_MODE;
 271:main.c        ****     
 272:main.c        ****     /* Enable interrupts. This is required for CapSense and I2C operation */ 
 273:main.c        ****     CyGlobalIntEnable;
 274:main.c        ****     
 275:main.c        ****     /* Start the I2C block and initialize the I2C buffer data */
 276:main.c        ****     i2cInit();
 277:main.c        ****     
 278:main.c        ****     /* Delay CapSense calibration, until the power supply is stable */
 279:main.c        ****     CyDelay(100);
 280:main.c        ****     
 281:main.c        ****     /* Initialize all the CapSense widgets used in the project */
 282:main.c        ****     capSenseInit();  
 283:main.c        **** 
 284:main.c        ****     /* Watchdog is used to control the loop time in this project */
 285:main.c        ****     WDT_Start();
 286:main.c        ****    
 287:main.c        **** 	for(;;)
 288:main.c        **** 	{        
 289:main.c        **** 		switch(currentState)
 290:main.c        **** 		{
 291:main.c        ****             case SENSOR_SCAN:
 292:main.c        ****                 /* Initiate new scan only if the CapSense hardware is idle */
 293:main.c        ****                 if(CapSense_NOT_BUSY == CapSense_IsBusy())
 294:main.c        ****                 {
 295:main.c        ****                     #if (TUNER_ENABLE)
 296:main.c        ****                         /* Update CapSense parameters set via CapSense tuner */
 297:main.c        ****                         CapSense_RunTuner();
 298:main.c        ****                     #endif
 299:main.c        ****                     
 300:main.c        ****                     /* If device is in fast scan mode, set the parameters for trackpad or button wi
 301:main.c        ****                     if(deviceScanMode == FAST_SCAN_MODE)
 302:main.c        ****                     {
 303:main.c        ****                         /* Check which widget has to be scanned and configure the parameters for sc
 304:main.c        ****                         *  Each of the three widgets (trackpad, and 2 buttons) are scanned one at a
 305:main.c        ****                         *  in fast scan mode. The currentWidget variable is used to switch between 
 306:main.c        ****                         *  widgets in a round robin fashion and to configure the parameters for sca
 307:main.c        ****                         *  Ganged sensor widget is scanned in this state to reset its state to OFF 
 308:main.c        ****                         */
 309:main.c        ****                         if(currentWidget == CapSense_TRACKPAD_WDGT_ID)
 310:main.c        ****                         {
 311:main.c        ****                             /* Configure trackpad before scanning */
 312:main.c        ****                             CapSense_CSDSetupWidget(CapSense_TRACKPAD_WDGT_ID);
 313:main.c        ****                             
 314:main.c        ****                             /* Scan LeftClick button after trackpad */
 315:main.c        ****                             currentWidget = CapSense_LEFTCLICK_WDGT_ID;
ARM GAS  C:\Users\Asus\AppData\Local\Temp\cc7iUwpi.s 			page 7


 316:main.c        ****                         }
 317:main.c        ****                         else if(currentWidget == CapSense_LEFTCLICK_WDGT_ID)
 318:main.c        ****                         {
 319:main.c        ****                             /* Configure LeftClick button widget before scanning */
 320:main.c        ****                             CapSense_CSDSetupWidget(CapSense_LEFTCLICK_WDGT_ID);
 321:main.c        ****                             
 322:main.c        ****                             /* Scan RightClick button after scanning LeftClick */
 323:main.c        ****                             currentWidget = CapSense_RIGHTCLICK_WDGT_ID;
 324:main.c        ****                         }
 325:main.c        ****                         else if (currentWidget == CapSense_RIGHTCLICK_WDGT_ID)
 326:main.c        ****                         {
 327:main.c        ****                             /* Configure RightClick button widget before scanning */
 328:main.c        ****                             CapSense_CSDSetupWidget(CapSense_RIGHTCLICK_WDGT_ID);
 329:main.c        ****                             
 330:main.c        ****                             /* If gangsensor status is ON and trackpad, buttons are inactive, 
 331:main.c        ****                             *  scan ganged sensor until its status is OFF */
 332:main.c        ****                             if(CapSense_IsWidgetActive(CapSense_GANGEDSENSOR_WDGT_ID) && (!anyWidge
 333:main.c        ****                             {
 334:main.c        ****                                 currentWidget = CapSense_GANGEDSENSOR_WDGT_ID;
 335:main.c        ****                             }
 336:main.c        ****                             /* If gangsensor status is OFF, scan trackpad after RightClick button *
 337:main.c        ****                             else
 338:main.c        ****                             {
 339:main.c        ****                                 /* Scan trackpad after scanning RightClick */
 340:main.c        ****                                 currentWidget = CapSense_TRACKPAD_WDGT_ID;
 341:main.c        ****                             }
 342:main.c        ****                         }
 343:main.c        ****                         /* If currentWidget is gangsensor, configure it for scanning */
 344:main.c        ****                         else
 345:main.c        ****                         {
 346:main.c        ****                             /* Configure gangsensor before scanning */
 347:main.c        ****                             CapSense_CSDSetupWidget(CapSense_GANGEDSENSOR_WDGT_ID);
 348:main.c        ****                             
 349:main.c        ****                             /* Scan trackpad after scanning gangsensor */
 350:main.c        ****                             currentWidget = CapSense_TRACKPAD_WDGT_ID;
 351:main.c        ****                         }
 352:main.c        ****                     }
 353:main.c        ****                     /* If scan mode is slow scan mode, configure ganged sensor widget for scanning 
 354:main.c        ****                     else
 355:main.c        ****                     {
 356:main.c        ****                         /* Set up ganged sensor for scanning */
 357:main.c        ****                         CapSense_CSDSetupWidget(CapSense_GANGEDSENSOR_WDGT_ID);   
 358:main.c        ****                     }
 359:main.c        ****                     
 360:main.c        ****                     /* Scan the widget which was configured in the previous step */
 361:main.c        ****                     CapSense_Scan();
 362:main.c        ****                     
 363:main.c        ****                     /* Set the state machine to wait state until the scan is complete */
 364:main.c        ****                     currentState = WAIT_FOR_SCAN_COMPLETE;   
 365:main.c        ****                 }
 366:main.c        ****             break;
 367:main.c        ****                 
 368:main.c        ****             case WAIT_FOR_SCAN_COMPLETE:
 369:main.c        ****                 /* Device is in sleep state until CapSense scanning is complete or
 370:main.c        ****                 *  device is woken-up by either CapSense interrupt or I2C interrupt 
 371:main.c        ****                 */
 372:main.c        ****                 /* Disable interrupts, so that ISR is not serviced while
ARM GAS  C:\Users\Asus\AppData\Local\Temp\cc7iUwpi.s 			page 8


 373:main.c        ****                 *  checking for CapSense scan status. Otherwise, interrupt might
 374:main.c        ****                 *  get serviced after checking for IsBusy condition and device
 375:main.c        ****                 *  might not wakeup since CapSense interrupt is already serviced
 376:main.c        ****                 */
 377:main.c        ****                 interruptState = CyEnterCriticalSection();
 378:main.c        ****                             
 379:main.c        ****                 /* Check if CapSense scanning is complete */
 380:main.c        ****                 if(CapSense_NOT_BUSY != CapSense_IsBusy())
 381:main.c        ****                 {
 382:main.c        ****                     /* If CapSense scanning is in progress, put CPU to sleep */
 383:main.c        ****                     CySysPmSleep();
 384:main.c        ****                 }
 385:main.c        ****                 /* If CapSense scanning is complete, process the CapSense data */
 386:main.c        ****                 else
 387:main.c        ****                 {
 388:main.c        ****                     /* In fast scan mode, keep scanning the widgets until the widget is trackpad */
 389:main.c        ****                     if((deviceScanMode == FAST_SCAN_MODE) && (currentWidget != CapSense_TRACKPAD_WD
 390:main.c        ****                     {
 391:main.c        ****                         currentState = SENSOR_SCAN;
 392:main.c        ****                     }
 393:main.c        ****                     /* In slow scan mode, process data directly as only gangsensor is scanned 
 394:main.c        ****                     *  In fast scan mode, data is processed after all the sensors are scanned
 395:main.c        ****                     */
 396:main.c        ****                     else
 397:main.c        ****                     {
 398:main.c        ****                         /* If current widget is trackpad or mode is slow scan mode, process the sen
 399:main.c        ****                         currentState = PROCESS_DATA;
 400:main.c        ****                     }
 401:main.c        ****                 }
 402:main.c        ****                 /* Enable interrupts for servicing ISR */
 403:main.c        ****                 CyExitCriticalSection(interruptState);
 404:main.c        ****             break;
 405:main.c        ****             
 406:main.c        **** 			case PROCESS_DATA:
 407:main.c        ****                 /* Set next state to SLEEP */
 408:main.c        ****                 currentState = DEEP_SLEEP;
 409:main.c        **** 
 410:main.c        ****                 if(deviceScanMode == FAST_SCAN_MODE)
 411:main.c        ****                 {
 412:main.c        ****                     /* If mode is fast scan mode, process trackpad and button widget data. 
 413:main.c        ****                     *  Filters are applied only for ganged sensor.
 414:main.c        ****                     *  For trackpad, filters are not applied to get best response time
 415:main.c        ****                     */
 416:main.c        ****                     CapSense_ProcessWidget(CapSense_TRACKPAD_WDGT_ID);
 417:main.c        ****                     CapSense_ProcessWidget(CapSense_LEFTCLICK_WDGT_ID);
 418:main.c        ****                     CapSense_ProcessWidget(CapSense_RIGHTCLICK_WDGT_ID);
 419:main.c        ****                     
 420:main.c        ****                     /* If trackpad and button sensor are inactive and gangsensor status is ON
 421:main.c        ****                     *  process the gang sensor data until its status is OFF
 422:main.c        ****                     */
 423:main.c        ****                     if((!anyWidgetActive()) && CapSense_IsWidgetActive(CapSense_GANGEDSENSOR_WDGT_I
 424:main.c        ****                        CapSense_ProcessWidget(CapSense_GANGEDSENSOR_WDGT_ID);
 425:main.c        ****                     
 426:main.c        ****                     /* Check if trackpad is active */
 427:main.c        **** 					fingerStatus =  CapSense_IsWidgetActive(CapSense_TRACKPAD_WDGT_ID);
 428:main.c        ****                     
 429:main.c        ****                     /* If trackpad is active, obtain XY coordinates */
ARM GAS  C:\Users\Asus\AppData\Local\Temp\cc7iUwpi.s 			page 9


 430:main.c        **** 					if(fingerStatus == TRUE)
 431:main.c        **** 					{
 432:main.c        ****     					tempCoordinates = CapSense_GetXYCoordinates(CapSense_TRACKPAD_WDGT_ID);
 433:main.c        ****                         
 434:main.c        ****                         /* Extract XY positions separately */
 435:main.c        ****     					touchPosition[X_POSITION] = LO16(tempCoordinates);
 436:main.c        ****     					touchPosition[Y_POSITION] = HI16 (tempCoordinates);
 437:main.c        **** 					}
 438:main.c        ****                     /* If trackpad is inactive, set touch position to 0. This will reset all the 
 439:main.c        ****                     *  previous history
 440:main.c        ****                     */
 441:main.c        ****                     else
 442:main.c        ****                     {
 443:main.c        **** 						touchPosition[X_POSITION] = 0u;
 444:main.c        **** 						touchPosition[Y_POSITION] = 0u;
 445:main.c        ****                     }
 446:main.c        ****                     
 447:main.c        ****                     /* Compute deltaX and deltaY touch position */
 448:main.c        **** 					mouseDataProcess();	
 449:main.c        ****                     
 450:main.c        ****                     /* Update the I2C buffer with HID data */
 451:main.c        ****                     updateI2cBuffer();
 452:main.c        ****                         
 453:main.c        ****                     /* If trackpad or button sensor is not active, increment the timeout counter */
 454:main.c        ****                     if(!CapSense_IsAnyWidgetActive())
 455:main.c        ****                     {
 456:main.c        ****                         /* Turn-off LED */
 457:main.c        ****                         Red_LED_Write(LED_OFF);
 458:main.c        ****                         
 459:main.c        ****                         /* Increment timeout counter variable */
 460:main.c        ****                         timeoutCounter++;
 461:main.c        ****                         
 462:main.c        ****                         /* Check if sensor is inactive for a duration greater than SCANMODE_TIMEOUT
 463:main.c        ****                         if(timeoutCounter >= SCANMODE_TIMEOUT_VALUE)
 464:main.c        ****                         {
 465:main.c        ****                             /* Configure refresh interval to slow rate to reduce device power */
 466:main.c        ****                             wdtMatchValue = WDT_TIMEOUT_SLOW_SCAN; 
 467:main.c        **** 
 468:main.c        ****                             /* Set mode to slow scan mode to scan only ganged sensor */
 469:main.c        ****                             deviceScanMode = SLOW_SCAN_MODE;
 470:main.c        ****                         }
 471:main.c        ****                     }  
 472:main.c        ****                     /* If either trackpad or button sensors are active, turn-on LED and reset the t
 473:main.c        ****                     else
 474:main.c        ****                     {
 475:main.c        ****                         Red_LED_Write(LED_ON);
 476:main.c        ****                         
 477:main.c        ****                         /* Because sensor is active, reset the counter */
 478:main.c        ****                         timeoutCounter = 0u;
 479:main.c        ****                     }
 480:main.c        ****                 }
 481:main.c        ****                 /* If device is in SLOW_SCAN_MODE, perform the below operations */
 482:main.c        ****                 else
 483:main.c        ****                 {
 484:main.c        ****                     /* Update baseline, sensor status for ganged sensor */
 485:main.c        ****                     CapSense_ProcessWidget(CapSense_GANGEDSENSOR_WDGT_ID);
 486:main.c        **** 
ARM GAS  C:\Users\Asus\AppData\Local\Temp\cc7iUwpi.s 			page 10


 487:main.c        ****                     /* Check ganged sensor status */
 488:main.c        ****                     if(CapSense_IsWidgetActive(CapSense_GANGEDSENSOR_WDGT_ID))
 489:main.c        ****                     {
 490:main.c        ****                         /* Set watchdog match value to fast scan mode */
 491:main.c        ****                         wdtMatchValue = WDT_TIMEOUT_FAST_SCAN;         
 492:main.c        **** 
 493:main.c        ****                         /* Reset counter */
 494:main.c        ****                         timeoutCounter = SW_TIMER_RESET;
 495:main.c        **** 
 496:main.c        ****                         /* Change the device mode to fast because touch is detected on gang sensor 
 497:main.c        ****                         deviceScanMode = FAST_SCAN_MODE; 
 498:main.c        **** 
 499:main.c        ****                         /* Scan trackpad widget first */
 500:main.c        ****                         currentWidget = CapSense_TRACKPAD_WDGT_ID;
 501:main.c        **** 
 502:main.c        ****                         /* Skip sleep state and set next state to sensor scan */
 503:main.c        ****                         currentState = SENSOR_SCAN;
 504:main.c        ****                     }
 505:main.c        ****                 }
 506:main.c        ****             break;
 507:main.c        **** 
 508:main.c        **** 			case DEEP_SLEEP:
 509:main.c        ****                 
 510:main.c        ****                 /* Enter deep sleep after CapSense scan is completed */
 511:main.c        **** 			    enterDeepSleepLowPowerMode();
 512:main.c        ****                 
 513:main.c        ****                 /* Start scanning the sensors only if interrupt occurred due to WDT.
 514:main.c        ****                 *  Interrupt can also occur due to I2C interrupt either when tuner is running
 515:main.c        ****                 *  or when PSoC 5LP is reading HID data from slave device.
 516:main.c        ****                 *  In such cases, sensor is not scanned until WDT interrupt has occurred
 517:main.c        ****                 */
 518:main.c        ****                 if(wdtInterruptOccured)
 519:main.c        ****                 {                    
 520:main.c        ****                     /* Set state to scan sensor after device wakes up from sleep */
 521:main.c        ****                     currentState = SENSOR_SCAN;
 522:main.c        ****                     
 523:main.c        ****                     wdtInterruptOccured = FALSE;  
 524:main.c        ****                     
 525:main.c        ****                     /* Calibrate the ILO to ensure accurate scan intervals */
 526:main.c        ****                     CalibrateWdtMatchValue();
 527:main.c        ****                 }
 528:main.c        **** 		        break;	
 529:main.c        ****             default:
 530:main.c        ****             /*******************************************************************
 531:main.c        ****              * Unknown power mode state. Unexpected situation.
 532:main.c        ****              ******************************************************************/
 533:main.c        ****             CYASSERT(0);
 534:main.c        ****             break;
 535:main.c        ****         }
 536:main.c        **** 	}      
 537:main.c        **** }
 538:main.c        **** 
 539:main.c        **** /******************************************************************************
 540:main.c        **** * Function Name: capSenseInit
 541:main.c        **** *******************************************************************************
 542:main.c        **** *
 543:main.c        **** * Summary: This API initializes CapSense block
ARM GAS  C:\Users\Asus\AppData\Local\Temp\cc7iUwpi.s 			page 11


 544:main.c        **** 
 545:main.c        **** *
 546:main.c        **** * Parameters:
 547:main.c        **** *  None.
 548:main.c        **** *
 549:main.c        **** * Return:
 550:main.c        **** *  None.
 551:main.c        **** *
 552:main.c        **** * Theory:
 553:main.c        **** *   capSenseInit() performs following functions:
 554:main.c        **** *  1: Starts the CapSense block
 555:main.c        **** *  2: Scan the trackpad widget and initialize the previous touch coordinate values
 556:main.c        **** * 
 557:main.c        **** * Side Effects: None
 558:main.c        **** *
 559:main.c        **** * Note: None
 560:main.c        **** *
 561:main.c        **** *******************************************************************************/
 562:main.c        **** void capSenseInit(void)
 563:main.c        **** {
 564:main.c        ****     /* Temporary variable to store trackpad coordinates */
 565:main.c        ****     uint32 tempCoordinates;
 566:main.c        **** 
 567:main.c        ****     /* Starts the CapSense block and performs baseline initialization */
 568:main.c        ****     CapSense_Start();
 569:main.c        ****     
 570:main.c        ****     /* Set the default finger presence status and touch coordinates */
 571:main.c        ****     fingerStatus =  0x0u;
 572:main.c        ****     tempCoordinates = 0xFFFFu;
 573:main.c        ****     
 574:main.c        ****     /* Get the touch position */
 575:main.c        ****     touchPosition[X_POSITION] = LO16(tempCoordinates);
 576:main.c        ****     touchPosition[Y_POSITION] = HI16 (tempCoordinates);
 577:main.c        ****     
 578:main.c        ****     /* Initialize the previous touch position */
 579:main.c        ****     prevTouchPosition[X_POSITION] = touchPosition[X_POSITION];
 580:main.c        ****     prevTouchPosition[Y_POSITION] = touchPosition[Y_POSITION];
 581:main.c        **** }
 582:main.c        **** 
 583:main.c        **** /******************************************************************************
 584:main.c        **** * Function Name: mouseDataProcess
 585:main.c        **** *******************************************************************************
 586:main.c        **** *
 587:main.c        **** * Summary:
 588:main.c        **** *  This API processes the rawdata from the CapSense block and prepares the data
 589:main.c        **** *  to be sent over I2C to host
 590:main.c        **** *
 591:main.c        **** * Parameters:
 592:main.c        **** *  None.
 593:main.c        **** *
 594:main.c        **** * Return:
 595:main.c        **** *  None.
 596:main.c        **** *
 597:main.c        **** * Theory: This API computes the deltaX and deltaY position for trackpad. It also checks 
 598:main.c        **** *         the falling edge on the leftClick and rightClick buttons.
 599:main.c        **** *
 600:main.c        **** * Side Effects: None
ARM GAS  C:\Users\Asus\AppData\Local\Temp\cc7iUwpi.s 			page 12


 601:main.c        **** *
 602:main.c        **** * Note: None
 603:main.c        **** *
 604:main.c        **** *******************************************************************************/
 605:main.c        **** 
 606:main.c        **** void mouseDataProcess(void)
 607:main.c        **** {
 608:main.c        ****     /* Variable to detect raising edge of left button status */
 609:main.c        ****     static uint8 prevLeftClick = 0u;
 610:main.c        ****     uint8 currentLeftClick = 0u;
 611:main.c        ****     
 612:main.c        ****     /* Variable to detect raising edge of right button status */
 613:main.c        ****     static uint8 prevRightClick = 0u;
 614:main.c        ****     uint8 currentRightClick = 0u;
 615:main.c        ****     
 616:main.c        ****     /* Variable to detect rising edge/falling edge of trackpad status */
 617:main.c        ****     static uint8 prevfingerStatus = 0u;
 618:main.c        ****     uint8 currentfingerStatus = 0u;
 619:main.c        ****             
 620:main.c        ****     /* Initialize the sign indication variable to '0' */
 621:main.c        ****     xyDirectionData = 0u;
 622:main.c        ****     
 623:main.c        ****     /* If trackpad is active, perform delta position computation */
 624:main.c        **** 	currentfingerStatus =  CapSense_IsWidgetActive(CapSense_TRACKPAD_WDGT_ID);
 625:main.c        ****     
 626:main.c        ****     /* Compute delta positions only when the finger is placed on the trackpad
 627:main.c        ****     *  Delta position is not computed when there is a touchdown or liftoff condition is detected
 628:main.c        ****     */
 629:main.c        ****     if((currentfingerStatus && prevfingerStatus))
 630:main.c        ****     {
 631:main.c        ****         /* Get the DeltaX and DeltaY coordinates and sign information */
 632:main.c        ****         if(prevTouchPosition[X_POSITION] > touchPosition[X_POSITION])
 633:main.c        ****         {
 634:main.c        ****             diffPosition[X_POSITION] = prevTouchPosition[X_POSITION] - touchPosition[X_POSITION];
 635:main.c        ****             xyDirectionData = xyDirectionData | X_POSITION_NEGATIVE;
 636:main.c        ****         }
 637:main.c        ****         /* If previous X position is less than current X position */
 638:main.c        ****         else
 639:main.c        ****         {
 640:main.c        ****             diffPosition[X_POSITION] = touchPosition[X_POSITION] - prevTouchPosition[X_POSITION];
 641:main.c        ****         }
 642:main.c        ****         
 643:main.c        ****         if(prevTouchPosition[Y_POSITION] > touchPosition[Y_POSITION])
 644:main.c        ****         {
 645:main.c        ****             diffPosition[Y_POSITION] = prevTouchPosition[Y_POSITION] - touchPosition[Y_POSITION];
 646:main.c        ****         }
 647:main.c        ****         /* If previous Y position is less than current Y position */
 648:main.c        ****         else
 649:main.c        ****         {
 650:main.c        ****             diffPosition[Y_POSITION] = touchPosition[Y_POSITION] - prevTouchPosition[Y_POSITION];
 651:main.c        ****             xyDirectionData = xyDirectionData | Y_POSITION_NEGATIVE;
 652:main.c        ****         }
 653:main.c        ****     }
 654:main.c        ****     /* If either trackpad is not active, or a touchdown or liftoff condition is detected
 655:main.c        ****     *  delta position is initialized to 0.
 656:main.c        ****     */
 657:main.c        ****     else
ARM GAS  C:\Users\Asus\AppData\Local\Temp\cc7iUwpi.s 			page 13


 658:main.c        ****     {
 659:main.c        ****         diffPosition[X_POSITION] = 0u;
 660:main.c        ****         diffPosition[Y_POSITION] = 0u;
 661:main.c        ****     }
 662:main.c        ****     
 663:main.c        ****     /* If delta position is greater than the threshold limit, scale the 
 664:main.c        ****     *  delta position by a factor of 2.
 665:main.c        ****     */
 666:main.c        ****     if(diffPosition[X_POSITION] > DELTA_POS_MULT_THRESHOLD)
 667:main.c        ****         diffPosition[X_POSITION] = diffPosition[X_POSITION] << 1u;
 668:main.c        ****     
 669:main.c        ****     if(diffPosition[Y_POSITION] > DELTA_POS_MULT_THRESHOLD)
 670:main.c        ****         diffPosition[Y_POSITION] = diffPosition[Y_POSITION] << 1u;
 671:main.c        **** 
 672:main.c        ****     /* Update previous touch position variables once delta position is computed */
 673:main.c        ****     prevTouchPosition[X_POSITION] = touchPosition[X_POSITION];
 674:main.c        ****     prevTouchPosition[Y_POSITION] = touchPosition[Y_POSITION];
 675:main.c        ****     
 676:main.c        ****     /* Get the current button status */
 677:main.c        ****     currentLeftClick = CapSense_IsWidgetActive(CapSense_LEFTCLICK_WDGT_ID);
 678:main.c        ****     currentRightClick = CapSense_IsWidgetActive(CapSense_RIGHTCLICK_WDGT_ID);
 679:main.c        ****     
 680:main.c        ****     /* Get the mouse left click and right click data */
 681:main.c        ****     mouseClickData = 0;
 682:main.c        ****     
 683:main.c        ****     /* Send left click only on the raising edge of left-click button status */
 684:main.c        ****     if((prevLeftClick == 0) && (currentLeftClick !=0))
 685:main.c        ****     {
 686:main.c        ****         mouseClickData |= MOUSE_FN_LEFT_CLICK; 
 687:main.c        ****     }
 688:main.c        ****     else
 689:main.c        ****     {
 690:main.c        ****         mouseClickData &= ~(MOUSE_FN_LEFT_CLICK); 
 691:main.c        ****     }
 692:main.c        ****     
 693:main.c        ****     /* Send right click only on the raising edge of right-click button status */
 694:main.c        ****     if((prevRightClick == 0) && (currentRightClick !=0))
 695:main.c        ****     {
 696:main.c        ****         mouseClickData |= MOUSE_FN_RIGHT_CLICK; 
 697:main.c        ****     }
 698:main.c        ****     else
 699:main.c        ****     {
 700:main.c        ****         mouseClickData &= ~(MOUSE_FN_RIGHT_CLICK); 
 701:main.c        ****     }
 702:main.c        ****     
 703:main.c        ****     /* Update previous trackpad and button status */
 704:main.c        ****     prevfingerStatus = currentfingerStatus;
 705:main.c        ****     prevLeftClick = currentLeftClick;
 706:main.c        ****     prevRightClick = currentRightClick;
 707:main.c        **** }
 708:main.c        **** 
 709:main.c        **** /******************************************************************************
 710:main.c        **** * Function Name: i2cInit
 711:main.c        **** *******************************************************************************
 712:main.c        **** *
 713:main.c        **** * Summary:
 714:main.c        **** *  This function starts the I2C block and assigns the I2C buffer that is exposed to the master
ARM GAS  C:\Users\Asus\AppData\Local\Temp\cc7iUwpi.s 			page 14


 715:main.c        **** *  If tuner communication is enabled, the I2C buffer will be the CapSense data structure
 716:main.c        **** *  If tuner communication is disabled, the I2C buffer will be the HID data structure
 717:main.c        **** *
 718:main.c        **** * Parameters:
 719:main.c        **** *  None.
 720:main.c        **** *
 721:main.c        **** * Return:
 722:main.c        **** *  None.
 723:main.c        **** *
 724:main.c        **** * Theory: DUT index and HID type are one time updates and hence they are 
 725:main.c        **** *         updated on power up.
 726:main.c        **** *
 727:main.c        **** * Side Effects: None
 728:main.c        **** *
 729:main.c        **** * Note: None
 730:main.c        **** *
 731:main.c        **** *******************************************************************************/
 732:main.c        **** void i2cInit(void)
 733:main.c        **** {
 734:main.c        ****     /* Configure the SCB clock for EZI2C operation */
 735:main.c        ****     EZI2C_Start();
 736:main.c        ****     
 737:main.c        ****     /* If tuner is enabled, expose CapSense data structure to I2C master */
 738:main.c        ****     #if (TUNER_ENABLE)
 739:main.c        ****         EZI2C_EzI2CSetBuffer1(sizeof(CapSense_dsRam), sizeof(CapSense_dsRam),\
 740:main.c        ****                          (uint8 *)&CapSense_dsRam);
 741:main.c        ****     #else
 742:main.c        ****         /* Fill in the buffer with default values */
 743:main.c        ****         ezI2cBuffer[DUT_ID_INDEX] = DUT_ID_CHECK;
 744:main.c        ****         
 745:main.c        ****         /* Trackpad acts as a HID mouse in this example */
 746:main.c        ****         ezI2cBuffer[HID_TYPE_INDEX] = MOUSE_FUNCTION;
 747:main.c        ****         
 748:main.c        ****         /* Setup I2C buffer */
 749:main.c        ****         EZI2C_EzI2CSetBuffer1(BUFFER_SIZE, READ_ONLY_OFFSET, ezI2cBuffer);
 750:main.c        ****     #endif
 751:main.c        **** }
 752:main.c        **** 
 753:main.c        **** /******************************************************************************
 754:main.c        **** * Function Name: updateI2cBuffer
 755:main.c        **** *******************************************************************************
 756:main.c        **** *
 757:main.c        **** * Summary:
 758:main.c        **** *  This API updates the I2C buffer with the HID related data
 759:main.c        **** *
 760:main.c        **** * Parameters:
 761:main.c        **** *  None.
 762:main.c        **** *
 763:main.c        **** * Return:
 764:main.c        **** *  None.
 765:main.c        **** *
 766:main.c        **** * Theory: This API updates the buffer with trackpad and button sensor status. 
 767:main.c        **** *         Once the host reads the data, the entire buffer is cleared.
 768:main.c        **** *
 769:main.c        **** * Side Effects: None
 770:main.c        **** *
 771:main.c        **** * Note: None
ARM GAS  C:\Users\Asus\AppData\Local\Temp\cc7iUwpi.s 			page 15


 772:main.c        **** *
 773:main.c        **** *******************************************************************************/
 774:main.c        **** void updateI2cBuffer(void)
 775:main.c        **** {
 776:main.c        ****     uint16 checksum = 0u;
 777:main.c        ****     uint8 index;
 778:main.c        ****     static uint8 resetDone = 0u;
 779:main.c        ****     
 780:main.c        ****     /* If either trackpad or button sensor is touched, update the I2C buffer */
 781:main.c        ****     if(fingerStatus || mouseClickData)
 782:main.c        ****     {
 783:main.c        ****         /* Set the data valid byte to invalid before updating the buffer */
 784:main.c        ****         ezI2cBuffer[HID_DATA_VALID_INDEX] = HID_DATA_INVALID;
 785:main.c        ****                 
 786:main.c        ****         /* Reset all the data */
 787:main.c        ****         for(index = DATA_BYTE1_INDEX; index <= DATA_BYTE5_INDEX;index++)
 788:main.c        ****         {
 789:main.c        ****             ezI2cBuffer[index] = 0u;
 790:main.c        ****         }
 791:main.c        **** 
 792:main.c        ****         /* 5 bytes of data is sent to host 
 793:main.c        ****         BYTE1 - Mouse click data
 794:main.c        ****         BYTE2 - Delta x data
 795:main.c        ****         BYTE3 - Delta y data
 796:main.c        ****         BYTE4 - 0 (Scroll data, not used in this code example)
 797:main.c        ****         BYTE5 - delta x and delta y sign information
 798:main.c        ****         */
 799:main.c        ****         ezI2cBuffer[BYTES_IN_BUFFER_INDEX] = MOUSE_DATA_BYTES_COUNT;
 800:main.c        ****         
 801:main.c        ****         ezI2cBuffer[DATA_BYTE1_INDEX] = mouseClickData;
 802:main.c        ****         ezI2cBuffer[DATA_BYTE2_INDEX] = diffPosition[Y_POSITION];
 803:main.c        ****         ezI2cBuffer[DATA_BYTE3_INDEX] = diffPosition[X_POSITION];
 804:main.c        ****         ezI2cBuffer[DATA_BYTE4_INDEX] = 0u;
 805:main.c        ****         ezI2cBuffer[DATA_BYTE5_INDEX] = xyDirectionData;
 806:main.c        **** 
 807:main.c        ****         /* Compute the checksum, sum of all register data
 808:main.c        ****            Checksum is set to 1 because data valid byte is set to '0'
 809:main.c        ****            and once checksum is computed and updated to buffer the data
 810:main.c        ****            valid byte will be set to '1'
 811:main.c        ****         */
 812:main.c        ****         checksum = 1u;         
 813:main.c        ****                     
 814:main.c        ****         for(index=0; index < (BUFFER_SIZE- CHECKSUM_BYTES); index++)
 815:main.c        ****         {
 816:main.c        ****             checksum += ezI2cBuffer[index];        
 817:main.c        ****         }
 818:main.c        ****         
 819:main.c        ****         /* Store checksum */
 820:main.c        ****         ezI2cBuffer[CHECKSUM_MSB_INDEX] = HI8(checksum);
 821:main.c        ****         ezI2cBuffer[CHECKSUM_LSB_INDEX] = LO8(checksum);
 822:main.c        ****         
 823:main.c        ****         /* Set HID_DATA_VALID_INDEX to '1' to indicate buffer is updated */
 824:main.c        ****         ezI2cBuffer[HID_DATA_VALID_INDEX] = HID_DATA_VALID;
 825:main.c        ****         
 826:main.c        ****         /* Set variable to indicate that buffer data is not reset */
 827:main.c        ****         resetDone = 0;
 828:main.c        ****     }
ARM GAS  C:\Users\Asus\AppData\Local\Temp\cc7iUwpi.s 			page 16


 829:main.c        ****     
 830:main.c        ****     /* If host has read the data and reset the HID_DATA_VALID_INDEX byte, reset all the data */
 831:main.c        ****     if(ezI2cBuffer[HID_DATA_VALID_INDEX] == HID_DATA_INVALID)
 832:main.c        ****     {
 833:main.c        ****         /* Check if reset is already done */
 834:main.c        ****         if(resetDone == 0)
 835:main.c        ****         {
 836:main.c        ****             /* Initialize all the buffer data bytes to zero */
 837:main.c        ****             for(index = DATA_BYTE1_INDEX; index <= DATA_BYTE5_INDEX; index++)
 838:main.c        ****             {
 839:main.c        ****                 ezI2cBuffer[index] = 0;
 840:main.c        ****             }
 841:main.c        ****             
 842:main.c        ****             /* Set variable to indicate that reset is done */
 843:main.c        ****             resetDone = 1u;
 844:main.c        ****         }
 845:main.c        ****     }    
 846:main.c        **** }
 847:main.c        **** 
 848:main.c        **** /******************************************************************************
 849:main.c        **** * Function Name: Timer_Interrupt
 850:main.c        **** *******************************************************************************
 851:main.c        **** *
 852:main.c        **** * Summary:
 853:main.c        **** *  Handles the Interrupt Service Routine for the WDT timer.
 854:main.c        **** *
 855:main.c        **** * Parameters:
 856:main.c        **** *  None.
 857:main.c        **** *
 858:main.c        **** * Return:
 859:main.c        **** *  None.
 860:main.c        **** *
 861:main.c        **** * Theory: The interrupt is cleared on the ISR as watchdog in this project is 
 862:main.c        **** *         used for timing maintenance only. Match value is updated to maintain 
 863:main.c        **** *         the loop time. 
 864:main.c        **** *
 865:main.c        **** * Side Effects: None
 866:main.c        **** *
 867:main.c        **** * Note: None
 868:main.c        **** *
 869:main.c        **** *******************************************************************************/
 870:main.c        **** 
 871:main.c        **** CY_ISR(Timer_Interrupt)
 872:main.c        **** {
  28              		.loc 1 872 0
  29              		.cfi_startproc
  30              		@ args = 0, pretend = 0, frame = 0
  31              		@ frame_needed = 0, uses_anonymous_args = 0
  32 0000 10B5     		push	{r4, lr}
  33              		.cfi_def_cfa_offset 8
  34              		.cfi_offset 4, -8
  35              		.cfi_offset 14, -4
 873:main.c        ****     /* Clear the watchdog interrupt */
 874:main.c        ****     CySysWdtClearInterrupt();  
  36              		.loc 1 874 0
  37 0002 FFF7FEFF 		bl	CySysWdtClearInterrupt
  38              	.LVL0:
ARM GAS  C:\Users\Asus\AppData\Local\Temp\cc7iUwpi.s 			page 17


 875:main.c        ****     
 876:main.c        ****     /* Update the watchdog match value */
 877:main.c        ****     CySysWdtWriteMatch(CySysWdtReadMatch() + wdtMatchValue);
  39              		.loc 1 877 0
  40 0006 FFF7FEFF 		bl	CySysWdtGetMatch
  41              	.LVL1:
  42 000a 044B     		ldr	r3, .L2
  43 000c 1B68     		ldr	r3, [r3]
  44 000e C018     		adds	r0, r0, r3
  45 0010 FFF7FEFF 		bl	CySysWdtSetMatch
  46              	.LVL2:
 878:main.c        ****     
 879:main.c        ****     /* Set flag to true to indicate main loop that interrupt is because of WDT */
 880:main.c        ****     wdtInterruptOccured = TRUE;
  47              		.loc 1 880 0
  48 0014 0122     		movs	r2, #1
  49 0016 024B     		ldr	r3, .L2+4
  50 0018 1A70     		strb	r2, [r3]
 881:main.c        **** }
  51              		.loc 1 881 0
  52              		@ sp needed
  53 001a 10BD     		pop	{r4, pc}
  54              	.L3:
  55              		.align	2
  56              	.L2:
  57 001c 00000000 		.word	.LANCHOR0
  58 0020 00000000 		.word	.LANCHOR1
  59              		.cfi_endproc
  60              	.LFE38:
  61              		.size	Timer_Interrupt, .-Timer_Interrupt
  62              		.section	.text.capSenseInit,"ax",%progbits
  63              		.align	2
  64              		.global	capSenseInit
  65              		.code	16
  66              		.thumb_func
  67              		.type	capSenseInit, %function
  68              	capSenseInit:
  69              	.LFB34:
 563:main.c        ****     /* Temporary variable to store trackpad coordinates */
  70              		.loc 1 563 0
  71              		.cfi_startproc
  72              		@ args = 0, pretend = 0, frame = 0
  73              		@ frame_needed = 0, uses_anonymous_args = 0
  74 0000 10B5     		push	{r4, lr}
  75              		.cfi_def_cfa_offset 8
  76              		.cfi_offset 4, -8
  77              		.cfi_offset 14, -4
 568:main.c        ****     
  78              		.loc 1 568 0
  79 0002 FFF7FEFF 		bl	CapSense_Start
  80              	.LVL3:
 571:main.c        ****     tempCoordinates = 0xFFFFu;
  81              		.loc 1 571 0
  82 0006 0023     		movs	r3, #0
  83 0008 054A     		ldr	r2, .L5
  84 000a 1380     		strh	r3, [r2]
  85              	.LVL4:
ARM GAS  C:\Users\Asus\AppData\Local\Temp\cc7iUwpi.s 			page 18


 575:main.c        ****     touchPosition[Y_POSITION] = HI16 (tempCoordinates);
  86              		.loc 1 575 0
  87 000c 054A     		ldr	r2, .L5+4
  88 000e 0121     		movs	r1, #1
  89 0010 4942     		rsbs	r1, r1, #0
  90 0012 1180     		strh	r1, [r2]
 576:main.c        ****     
  91              		.loc 1 576 0
  92 0014 5380     		strh	r3, [r2, #2]
 579:main.c        ****     prevTouchPosition[Y_POSITION] = touchPosition[Y_POSITION];
  93              		.loc 1 579 0
  94 0016 044A     		ldr	r2, .L5+8
  95 0018 1180     		strh	r1, [r2]
 580:main.c        **** }
  96              		.loc 1 580 0
  97 001a 5380     		strh	r3, [r2, #2]
 581:main.c        **** 
  98              		.loc 1 581 0
  99              		@ sp needed
 100 001c 10BD     		pop	{r4, pc}
 101              	.L6:
 102 001e C046     		.align	2
 103              	.L5:
 104 0020 00000000 		.word	fingerStatus
 105 0024 00000000 		.word	touchPosition
 106 0028 00000000 		.word	prevTouchPosition
 107              		.cfi_endproc
 108              	.LFE34:
 109              		.size	capSenseInit, .-capSenseInit
 110              		.section	.text.mouseDataProcess,"ax",%progbits
 111              		.align	2
 112              		.global	mouseDataProcess
 113              		.code	16
 114              		.thumb_func
 115              		.type	mouseDataProcess, %function
 116              	mouseDataProcess:
 117              	.LFB35:
 607:main.c        ****     /* Variable to detect raising edge of left button status */
 118              		.loc 1 607 0
 119              		.cfi_startproc
 120              		@ args = 0, pretend = 0, frame = 0
 121              		@ frame_needed = 0, uses_anonymous_args = 0
 122 0000 70B5     		push	{r4, r5, r6, lr}
 123              		.cfi_def_cfa_offset 16
 124              		.cfi_offset 4, -16
 125              		.cfi_offset 5, -12
 126              		.cfi_offset 6, -8
 127              		.cfi_offset 14, -4
 128              	.LVL5:
 621:main.c        ****     
 129              		.loc 1 621 0
 130 0002 0022     		movs	r2, #0
 131 0004 394B     		ldr	r3, .L18
 132 0006 1A70     		strb	r2, [r3]
 624:main.c        ****     
 133              		.loc 1 624 0
 134 0008 0020     		movs	r0, #0
ARM GAS  C:\Users\Asus\AppData\Local\Temp\cc7iUwpi.s 			page 19


 135 000a FFF7FEFF 		bl	CapSense_IsWidgetActive
 136              	.LVL6:
 137 000e C4B2     		uxtb	r4, r0
 138              	.LVL7:
 629:main.c        ****     {
 139              		.loc 1 629 0
 140 0010 002C     		cmp	r4, #0
 141 0012 28D0     		beq	.L8
 629:main.c        ****     {
 142              		.loc 1 629 0 is_stmt 0 discriminator 1
 143 0014 364B     		ldr	r3, .L18+4
 144 0016 5B78     		ldrb	r3, [r3, #1]
 145 0018 002B     		cmp	r3, #0
 146 001a 24D0     		beq	.L8
 632:main.c        ****         {
 147              		.loc 1 632 0 is_stmt 1
 148 001c 354B     		ldr	r3, .L18+8
 149 001e 1A88     		ldrh	r2, [r3]
 150 0020 354B     		ldr	r3, .L18+12
 151 0022 1B88     		ldrh	r3, [r3]
 152 0024 9A42     		cmp	r2, r3
 153 0026 08D9     		bls	.L9
 634:main.c        ****             xyDirectionData = xyDirectionData | X_POSITION_NEGATIVE;
 154              		.loc 1 634 0
 155 0028 D31A     		subs	r3, r2, r3
 156 002a 344A     		ldr	r2, .L18+16
 157 002c 1380     		strh	r3, [r2]
 635:main.c        ****         }
 158              		.loc 1 635 0
 159 002e 2F4A     		ldr	r2, .L18
 160 0030 1178     		ldrb	r1, [r2]
 161 0032 0223     		movs	r3, #2
 162 0034 0B43     		orrs	r3, r1
 163 0036 1370     		strb	r3, [r2]
 164 0038 02E0     		b	.L10
 165              	.L9:
 640:main.c        ****         }
 166              		.loc 1 640 0
 167 003a 9B1A     		subs	r3, r3, r2
 168 003c 2F4A     		ldr	r2, .L18+16
 169 003e 1380     		strh	r3, [r2]
 170              	.L10:
 643:main.c        ****         {
 171              		.loc 1 643 0
 172 0040 2C4B     		ldr	r3, .L18+8
 173 0042 5A88     		ldrh	r2, [r3, #2]
 174 0044 2C4B     		ldr	r3, .L18+12
 175 0046 5B88     		ldrh	r3, [r3, #2]
 176 0048 9A42     		cmp	r2, r3
 177 004a 03D9     		bls	.L11
 645:main.c        ****         }
 178              		.loc 1 645 0
 179 004c D31A     		subs	r3, r2, r3
 180 004e 2B4A     		ldr	r2, .L18+16
 181 0050 5380     		strh	r3, [r2, #2]
 182 0052 0CE0     		b	.L12
 183              	.L11:
ARM GAS  C:\Users\Asus\AppData\Local\Temp\cc7iUwpi.s 			page 20


 650:main.c        ****             xyDirectionData = xyDirectionData | Y_POSITION_NEGATIVE;
 184              		.loc 1 650 0
 185 0054 9B1A     		subs	r3, r3, r2
 186 0056 294A     		ldr	r2, .L18+16
 187 0058 5380     		strh	r3, [r2, #2]
 651:main.c        ****         }
 188              		.loc 1 651 0
 189 005a 244A     		ldr	r2, .L18
 190 005c 1178     		ldrb	r1, [r2]
 191 005e 0123     		movs	r3, #1
 192 0060 0B43     		orrs	r3, r1
 193 0062 1370     		strb	r3, [r2]
 194 0064 03E0     		b	.L12
 195              	.L8:
 659:main.c        ****         diffPosition[Y_POSITION] = 0u;
 196              		.loc 1 659 0
 197 0066 254B     		ldr	r3, .L18+16
 198 0068 0022     		movs	r2, #0
 199 006a 1A80     		strh	r2, [r3]
 660:main.c        ****     }
 200              		.loc 1 660 0
 201 006c 5A80     		strh	r2, [r3, #2]
 202              	.L12:
 666:main.c        ****         diffPosition[X_POSITION] = diffPosition[X_POSITION] << 1u;
 203              		.loc 1 666 0
 204 006e 234B     		ldr	r3, .L18+16
 205 0070 1B88     		ldrh	r3, [r3]
 206 0072 0A2B     		cmp	r3, #10
 207 0074 02D9     		bls	.L13
 667:main.c        ****     
 208              		.loc 1 667 0
 209 0076 5B00     		lsls	r3, r3, #1
 210 0078 204A     		ldr	r2, .L18+16
 211 007a 1380     		strh	r3, [r2]
 212              	.L13:
 669:main.c        ****         diffPosition[Y_POSITION] = diffPosition[Y_POSITION] << 1u;
 213              		.loc 1 669 0
 214 007c 1F4B     		ldr	r3, .L18+16
 215 007e 5B88     		ldrh	r3, [r3, #2]
 216 0080 0A2B     		cmp	r3, #10
 217 0082 02D9     		bls	.L14
 670:main.c        **** 
 218              		.loc 1 670 0
 219 0084 5B00     		lsls	r3, r3, #1
 220 0086 1D4A     		ldr	r2, .L18+16
 221 0088 5380     		strh	r3, [r2, #2]
 222              	.L14:
 673:main.c        ****     prevTouchPosition[Y_POSITION] = touchPosition[Y_POSITION];
 223              		.loc 1 673 0
 224 008a 1B4A     		ldr	r2, .L18+12
 225 008c 1188     		ldrh	r1, [r2]
 226 008e 194B     		ldr	r3, .L18+8
 227 0090 1980     		strh	r1, [r3]
 674:main.c        ****     
 228              		.loc 1 674 0
 229 0092 5288     		ldrh	r2, [r2, #2]
 230 0094 5A80     		strh	r2, [r3, #2]
ARM GAS  C:\Users\Asus\AppData\Local\Temp\cc7iUwpi.s 			page 21


 677:main.c        ****     currentRightClick = CapSense_IsWidgetActive(CapSense_RIGHTCLICK_WDGT_ID);
 231              		.loc 1 677 0
 232 0096 0120     		movs	r0, #1
 233 0098 FFF7FEFF 		bl	CapSense_IsWidgetActive
 234              	.LVL8:
 235 009c C5B2     		uxtb	r5, r0
 236              	.LVL9:
 678:main.c        ****     
 237              		.loc 1 678 0
 238 009e 0220     		movs	r0, #2
 239 00a0 FFF7FEFF 		bl	CapSense_IsWidgetActive
 240              	.LVL10:
 241 00a4 C0B2     		uxtb	r0, r0
 242              	.LVL11:
 681:main.c        ****     
 243              		.loc 1 681 0
 244 00a6 0022     		movs	r2, #0
 245 00a8 154B     		ldr	r3, .L18+20
 246 00aa 1A70     		strb	r2, [r3]
 684:main.c        ****     {
 247              		.loc 1 684 0
 248 00ac 104B     		ldr	r3, .L18+4
 249 00ae 9B78     		ldrb	r3, [r3, #2]
 250 00b0 002B     		cmp	r3, #0
 251 00b2 04D1     		bne	.L15
 684:main.c        ****     {
 252              		.loc 1 684 0 is_stmt 0 discriminator 1
 253 00b4 002D     		cmp	r5, #0
 254 00b6 02D0     		beq	.L15
 686:main.c        ****     }
 255              		.loc 1 686 0 is_stmt 1
 256 00b8 0132     		adds	r2, r2, #1
 257 00ba 114B     		ldr	r3, .L18+20
 258 00bc 1A70     		strb	r2, [r3]
 259              	.L15:
 694:main.c        ****     {
 260              		.loc 1 694 0
 261 00be 0C4B     		ldr	r3, .L18+4
 262 00c0 DB78     		ldrb	r3, [r3, #3]
 263 00c2 002B     		cmp	r3, #0
 264 00c4 07D1     		bne	.L16
 694:main.c        ****     {
 265              		.loc 1 694 0 is_stmt 0 discriminator 1
 266 00c6 0028     		cmp	r0, #0
 267 00c8 05D0     		beq	.L16
 696:main.c        ****     }
 268              		.loc 1 696 0 is_stmt 1
 269 00ca 0D4A     		ldr	r2, .L18+20
 270 00cc 1178     		ldrb	r1, [r2]
 271 00ce 0223     		movs	r3, #2
 272 00d0 0B43     		orrs	r3, r1
 273 00d2 1370     		strb	r3, [r2]
 274 00d4 04E0     		b	.L17
 275              	.L16:
 700:main.c        ****     }
 276              		.loc 1 700 0
 277 00d6 0A4A     		ldr	r2, .L18+20
ARM GAS  C:\Users\Asus\AppData\Local\Temp\cc7iUwpi.s 			page 22


 278 00d8 1378     		ldrb	r3, [r2]
 279 00da 0221     		movs	r1, #2
 280 00dc 8B43     		bics	r3, r1
 281 00de 1370     		strb	r3, [r2]
 282              	.L17:
 704:main.c        ****     prevLeftClick = currentLeftClick;
 283              		.loc 1 704 0
 284 00e0 034B     		ldr	r3, .L18+4
 285 00e2 5C70     		strb	r4, [r3, #1]
 705:main.c        ****     prevRightClick = currentRightClick;
 286              		.loc 1 705 0
 287 00e4 9D70     		strb	r5, [r3, #2]
 706:main.c        **** }
 288              		.loc 1 706 0
 289 00e6 D870     		strb	r0, [r3, #3]
 707:main.c        **** 
 290              		.loc 1 707 0
 291              		@ sp needed
 292              	.LVL12:
 293              	.LVL13:
 294 00e8 70BD     		pop	{r4, r5, r6, pc}
 295              	.L19:
 296 00ea C046     		.align	2
 297              	.L18:
 298 00ec 00000000 		.word	xyDirectionData
 299 00f0 00000000 		.word	.LANCHOR1
 300 00f4 00000000 		.word	prevTouchPosition
 301 00f8 00000000 		.word	touchPosition
 302 00fc 00000000 		.word	diffPosition
 303 0100 00000000 		.word	mouseClickData
 304              		.cfi_endproc
 305              	.LFE35:
 306              		.size	mouseDataProcess, .-mouseDataProcess
 307              		.section	.text.i2cInit,"ax",%progbits
 308              		.align	2
 309              		.global	i2cInit
 310              		.code	16
 311              		.thumb_func
 312              		.type	i2cInit, %function
 313              	i2cInit:
 314              	.LFB36:
 733:main.c        ****     /* Configure the SCB clock for EZI2C operation */
 315              		.loc 1 733 0
 316              		.cfi_startproc
 317              		@ args = 0, pretend = 0, frame = 0
 318              		@ frame_needed = 0, uses_anonymous_args = 0
 319 0000 10B5     		push	{r4, lr}
 320              		.cfi_def_cfa_offset 8
 321              		.cfi_offset 4, -8
 322              		.cfi_offset 14, -4
 735:main.c        ****     
 323              		.loc 1 735 0
 324 0002 FFF7FEFF 		bl	EZI2C_Start
 325              	.LVL14:
 743:main.c        ****         
 326              		.loc 1 743 0
 327 0006 054A     		ldr	r2, .L21
ARM GAS  C:\Users\Asus\AppData\Local\Temp\cc7iUwpi.s 			page 23


 328 0008 5523     		movs	r3, #85
 329 000a 1370     		strb	r3, [r2]
 746:main.c        ****         
 330              		.loc 1 746 0
 331 000c 543B     		subs	r3, r3, #84
 332 000e D370     		strb	r3, [r2, #3]
 749:main.c        ****     #endif
 333              		.loc 1 749 0
 334 0010 0221     		movs	r1, #2
 335 0012 1020     		movs	r0, #16
 336 0014 FFF7FEFF 		bl	EZI2C_EzI2CSetBuffer1
 337              	.LVL15:
 751:main.c        **** 
 338              		.loc 1 751 0
 339              		@ sp needed
 340 0018 10BD     		pop	{r4, pc}
 341              	.L22:
 342 001a C046     		.align	2
 343              	.L21:
 344 001c 00000000 		.word	ezI2cBuffer
 345              		.cfi_endproc
 346              	.LFE36:
 347              		.size	i2cInit, .-i2cInit
 348              		.section	.text.updateI2cBuffer,"ax",%progbits
 349              		.align	2
 350              		.global	updateI2cBuffer
 351              		.code	16
 352              		.thumb_func
 353              		.type	updateI2cBuffer, %function
 354              	updateI2cBuffer:
 355              	.LFB37:
 775:main.c        ****     uint16 checksum = 0u;
 356              		.loc 1 775 0
 357              		.cfi_startproc
 358              		@ args = 0, pretend = 0, frame = 0
 359              		@ frame_needed = 0, uses_anonymous_args = 0
 360              		@ link register save eliminated.
 361              	.LVL16:
 781:main.c        ****     {
 362              		.loc 1 781 0
 363 0000 274B     		ldr	r3, .L34
 364 0002 1B88     		ldrh	r3, [r3]
 365 0004 002B     		cmp	r3, #0
 366 0006 03D1     		bne	.L24
 781:main.c        ****     {
 367              		.loc 1 781 0 is_stmt 0 discriminator 1
 368 0008 264B     		ldr	r3, .L34+4
 369 000a 1B78     		ldrb	r3, [r3]
 370 000c 002B     		cmp	r3, #0
 371 000e 30D0     		beq	.L25
 372              	.L24:
 784:main.c        ****                 
 373              		.loc 1 784 0 is_stmt 1
 374 0010 0022     		movs	r2, #0
 375 0012 254B     		ldr	r3, .L34+8
 376 0014 5A70     		strb	r2, [r3, #1]
 377              	.LVL17:
ARM GAS  C:\Users\Asus\AppData\Local\Temp\cc7iUwpi.s 			page 24


 787:main.c        ****         {
 378              		.loc 1 787 0
 379 0016 0423     		movs	r3, #4
 380 0018 04E0     		b	.L26
 381              	.LVL18:
 382              	.L27:
 789:main.c        ****         }
 383              		.loc 1 789 0 discriminator 3
 384 001a 0021     		movs	r1, #0
 385 001c 224A     		ldr	r2, .L34+8
 386 001e D154     		strb	r1, [r2, r3]
 787:main.c        ****         {
 387              		.loc 1 787 0 discriminator 3
 388 0020 0133     		adds	r3, r3, #1
 389              	.LVL19:
 390 0022 DBB2     		uxtb	r3, r3
 391              	.LVL20:
 392              	.L26:
 787:main.c        ****         {
 393              		.loc 1 787 0 is_stmt 0 discriminator 1
 394 0024 082B     		cmp	r3, #8
 395 0026 F8D9     		bls	.L27
 799:main.c        ****         
 396              		.loc 1 799 0 is_stmt 1
 397 0028 1F4B     		ldr	r3, .L34+8
 398              	.LVL21:
 399 002a 0522     		movs	r2, #5
 400 002c 9A70     		strb	r2, [r3, #2]
 801:main.c        ****         ezI2cBuffer[DATA_BYTE2_INDEX] = diffPosition[Y_POSITION];
 401              		.loc 1 801 0
 402 002e 1D4A     		ldr	r2, .L34+4
 403 0030 1278     		ldrb	r2, [r2]
 404 0032 1A71     		strb	r2, [r3, #4]
 802:main.c        ****         ezI2cBuffer[DATA_BYTE3_INDEX] = diffPosition[X_POSITION];
 405              		.loc 1 802 0
 406 0034 1D4A     		ldr	r2, .L34+12
 407 0036 9178     		ldrb	r1, [r2, #2]
 408 0038 5971     		strb	r1, [r3, #5]
 803:main.c        ****         ezI2cBuffer[DATA_BYTE4_INDEX] = 0u;
 409              		.loc 1 803 0
 410 003a 1278     		ldrb	r2, [r2]
 411 003c 9A71     		strb	r2, [r3, #6]
 804:main.c        ****         ezI2cBuffer[DATA_BYTE5_INDEX] = xyDirectionData;
 412              		.loc 1 804 0
 413 003e 0022     		movs	r2, #0
 414 0040 DA71     		strb	r2, [r3, #7]
 805:main.c        **** 
 415              		.loc 1 805 0
 416 0042 1B4A     		ldr	r2, .L34+16
 417 0044 1278     		ldrb	r2, [r2]
 418 0046 1A72     		strb	r2, [r3, #8]
 419              	.LVL22:
 814:main.c        ****         {
 420              		.loc 1 814 0
 421 0048 0023     		movs	r3, #0
 812:main.c        ****                     
 422              		.loc 1 812 0
ARM GAS  C:\Users\Asus\AppData\Local\Temp\cc7iUwpi.s 			page 25


 423 004a 0122     		movs	r2, #1
 814:main.c        ****         {
 424              		.loc 1 814 0
 425 004c 05E0     		b	.L28
 426              	.LVL23:
 427              	.L29:
 816:main.c        ****         }
 428              		.loc 1 816 0 discriminator 3
 429 004e 1649     		ldr	r1, .L34+8
 430 0050 C95C     		ldrb	r1, [r1, r3]
 431 0052 8A18     		adds	r2, r1, r2
 432              	.LVL24:
 433 0054 92B2     		uxth	r2, r2
 434              	.LVL25:
 814:main.c        ****         {
 435              		.loc 1 814 0 discriminator 3
 436 0056 0133     		adds	r3, r3, #1
 437              	.LVL26:
 438 0058 DBB2     		uxtb	r3, r3
 439              	.LVL27:
 440              	.L28:
 814:main.c        ****         {
 441              		.loc 1 814 0 is_stmt 0 discriminator 1
 442 005a 0D2B     		cmp	r3, #13
 443 005c F7D9     		bls	.L29
 820:main.c        ****         ezI2cBuffer[CHECKSUM_LSB_INDEX] = LO8(checksum);
 444              		.loc 1 820 0 is_stmt 1
 445 005e 110A     		lsrs	r1, r2, #8
 446 0060 114B     		ldr	r3, .L34+8
 447              	.LVL28:
 448 0062 9973     		strb	r1, [r3, #14]
 821:main.c        ****         
 449              		.loc 1 821 0
 450 0064 D2B2     		uxtb	r2, r2
 451              	.LVL29:
 452 0066 DA73     		strb	r2, [r3, #15]
 824:main.c        ****         
 453              		.loc 1 824 0
 454 0068 0122     		movs	r2, #1
 455 006a 5A70     		strb	r2, [r3, #1]
 827:main.c        ****     }
 456              		.loc 1 827 0
 457 006c 0022     		movs	r2, #0
 458 006e 114B     		ldr	r3, .L34+20
 459 0070 1A71     		strb	r2, [r3, #4]
 460              	.L25:
 831:main.c        ****     {
 461              		.loc 1 831 0
 462 0072 0D4B     		ldr	r3, .L34+8
 463 0074 5B78     		ldrb	r3, [r3, #1]
 464 0076 002B     		cmp	r3, #0
 465 0078 10D1     		bne	.L23
 834:main.c        ****         {
 466              		.loc 1 834 0
 467 007a 0E4B     		ldr	r3, .L34+20
 468 007c 1B79     		ldrb	r3, [r3, #4]
 469 007e 002B     		cmp	r3, #0
ARM GAS  C:\Users\Asus\AppData\Local\Temp\cc7iUwpi.s 			page 26


 470 0080 06D0     		beq	.L33
 471 0082 0BE0     		b	.L23
 472              	.LVL30:
 473              	.L32:
 839:main.c        ****             }
 474              		.loc 1 839 0 discriminator 3
 475 0084 0021     		movs	r1, #0
 476 0086 084A     		ldr	r2, .L34+8
 477 0088 D154     		strb	r1, [r2, r3]
 837:main.c        ****             {
 478              		.loc 1 837 0 discriminator 3
 479 008a 0133     		adds	r3, r3, #1
 480              	.LVL31:
 481 008c DBB2     		uxtb	r3, r3
 482              	.LVL32:
 483 008e 00E0     		b	.L31
 484              	.LVL33:
 485              	.L33:
 486 0090 0423     		movs	r3, #4
 487              	.L31:
 488              	.LVL34:
 837:main.c        ****             {
 489              		.loc 1 837 0 is_stmt 0 discriminator 1
 490 0092 082B     		cmp	r3, #8
 491 0094 F6D9     		bls	.L32
 843:main.c        ****         }
 492              		.loc 1 843 0 is_stmt 1
 493 0096 0122     		movs	r2, #1
 494 0098 064B     		ldr	r3, .L34+20
 495              	.LVL35:
 496 009a 1A71     		strb	r2, [r3, #4]
 497              	.L23:
 846:main.c        **** 
 498              		.loc 1 846 0
 499              		@ sp needed
 500 009c 7047     		bx	lr
 501              	.L35:
 502 009e C046     		.align	2
 503              	.L34:
 504 00a0 00000000 		.word	fingerStatus
 505 00a4 00000000 		.word	mouseClickData
 506 00a8 00000000 		.word	ezI2cBuffer
 507 00ac 00000000 		.word	diffPosition
 508 00b0 00000000 		.word	xyDirectionData
 509 00b4 00000000 		.word	.LANCHOR1
 510              		.cfi_endproc
 511              	.LFE37:
 512              		.size	updateI2cBuffer, .-updateI2cBuffer
 513              		.section	.text.enterDeepSleepLowPowerMode,"ax",%progbits
 514              		.align	2
 515              		.global	enterDeepSleepLowPowerMode
 516              		.code	16
 517              		.thumb_func
 518              		.type	enterDeepSleepLowPowerMode, %function
 519              	enterDeepSleepLowPowerMode:
 520              	.LFB40:
 882:main.c        **** 
ARM GAS  C:\Users\Asus\AppData\Local\Temp\cc7iUwpi.s 			page 27


 883:main.c        **** /******************************************************************************
 884:main.c        **** * Function Name: WDT_Start
 885:main.c        **** *******************************************************************************
 886:main.c        **** *
 887:main.c        **** * Summary:
 888:main.c        **** *  Configures the Watchdog Timer (WDT).
 889:main.c        **** *
 890:main.c        **** * Parameters:
 891:main.c        **** *  None.
 892:main.c        **** *
 893:main.c        **** * Return:
 894:main.c        **** *  None.
 895:main.c        **** *
 896:main.c        **** * Theory: This API configures the WDT interrupt and loads the WDT match value.
 897:main.c        **** *         The WDT interrupt is masked to route the interrupt to CPU for periodic
 898:main.c        **** *         interrupt generation.
 899:main.c        **** *
 900:main.c        **** * Side Effects: None
 901:main.c        **** *
 902:main.c        **** * Note:
 903:main.c        **** *
 904:main.c        **** *******************************************************************************/
 905:main.c        **** void WDT_Start(void)
 906:main.c        **** {
 907:main.c        ****     /* Setup ISR for watchdog interrupt */
 908:main.c        ****     CyIntSetVector(WDT_IRQ_NUMBER, Timer_Interrupt);
 909:main.c        ****    
 910:main.c        ****     /* Get the actual match value required to generate a given delay */
 911:main.c        ****     CalibrateWdtMatchValue();
 912:main.c        ****     
 913:main.c        ****     /* WDT match value is updated in order to obtain periodic interrupts */
 914:main.c        ****     CySysWdtWriteMatch(CySysWdtReadCount() + wdtMatchValue);
 915:main.c        ****     
 916:main.c        ****     /* Pass the WDT interrupt from SRSS to NVIC */
 917:main.c        ****     CySysWdtUnmaskInterrupt();
 918:main.c        ****     
 919:main.c        ****     /* Enable WDT interrupt in NVIC to pass it to CPU */
 920:main.c        ****     CyIntEnable(WDT_IRQ_NUMBER);
 921:main.c        **** }
 922:main.c        **** 
 923:main.c        **** /*******************************************************************************
 924:main.c        **** * Function Name: enterDeepSleepLowPowerMode
 925:main.c        **** ********************************************************************************
 926:main.c        **** * Summary:
 927:main.c        **** *  Puts the device in DeepSleep power mode. Reconfigures the Components for 
 928:main.c        **** *  normal operation after wake-up. 
 929:main.c        **** *
 930:main.c        **** * Parameters:
 931:main.c        **** *  void
 932:main.c        **** *
 933:main.c        **** * Return:
 934:main.c        **** *  void
 935:main.c        **** *
 936:main.c        **** * Theory: Before going to deep sleep, the API checks for any I2C activity.
 937:main.c        **** *         If I2C is active, the API returns without forcing the system to DeepSleep.
 938:main.c        **** *         If I2C is inactive, device is put to DeepSleep and is woken up by WDT or
 939:main.c        **** *         I2C interrupt.
ARM GAS  C:\Users\Asus\AppData\Local\Temp\cc7iUwpi.s 			page 28


 940:main.c        **** *
 941:main.c        **** * Side Effects: None
 942:main.c        **** *
 943:main.c        **** * Note: None
 944:main.c        **** *
 945:main.c        **** *******************************************************************************/
 946:main.c        **** void enterDeepSleepLowPowerMode(void)
 947:main.c        **** {
 521              		.loc 1 947 0
 522              		.cfi_startproc
 523              		@ args = 0, pretend = 0, frame = 0
 524              		@ frame_needed = 0, uses_anonymous_args = 0
 525 0000 10B5     		push	{r4, lr}
 526              		.cfi_def_cfa_offset 8
 527              		.cfi_offset 4, -8
 528              		.cfi_offset 14, -4
 529              	.LVL36:
 948:main.c        ****     /* EZI2C_Sleep routine should be called only after on-going I2C 
 949:main.c        ****     *  transaction is complete
 950:main.c        ****     *  Enter critical section to lock slave state 
 951:main.c        ****     */
 952:main.c        ****     
 953:main.c        ****     /* Variable to store interrupt state */
 954:main.c        ****     uint32 interruptState = 0u;
 955:main.c        ****     
 956:main.c        ****     interruptState = CyEnterCriticalSection();
 530              		.loc 1 956 0
 531 0002 FFF7FEFF 		bl	CyEnterCriticalSection
 532              	.LVL37:
 533 0006 0400     		movs	r4, r0
 534              	.LVL38:
 957:main.c        ****     
 958:main.c        ****     /* Check if I2C is busy. If so, skip deep sleep until I2C is free */
 959:main.c        ****     if(!(EZI2C_EzI2CGetActivity() & EZI2C_EZI2C_STATUS_BUSY))
 535              		.loc 1 959 0
 536 0008 FFF7FEFF 		bl	EZI2C_EzI2CGetActivity
 537              	.LVL39:
 538 000c 8306     		lsls	r3, r0, #26
 539 000e 09D4     		bmi	.L37
 960:main.c        ****     {
 961:main.c        ****         /* Prepare for deep sleep - stop ILO calibration */
 962:main.c        ****         CySysClkIloStopMeasurement();
 540              		.loc 1 962 0
 541 0010 FFF7FEFF 		bl	CySysClkIloStopMeasurement
 542              	.LVL40:
 963:main.c        ****         
 964:main.c        ****         /* Configure slave to be wakeup source */
 965:main.c        ****         EZI2C_Sleep();
 543              		.loc 1 965 0
 544 0014 FFF7FEFF 		bl	EZI2C_Sleep
 545              	.LVL41:
 966:main.c        ****         
 967:main.c        ****     	/* Enter DeepSleep. */
 968:main.c        ****     	CySysPmDeepSleep();	
 546              		.loc 1 968 0
 547 0018 FFF7FEFF 		bl	CySysPmDeepSleep
 548              	.LVL42:
ARM GAS  C:\Users\Asus\AppData\Local\Temp\cc7iUwpi.s 			page 29


 969:main.c        ****        
 970:main.c        ****         /* WDT or any I2C communication wakes up device from deep sleep. */
 971:main.c        **** 
 972:main.c        ****         /* Configure slave for active mode operation */
 973:main.c        ****         EZI2C_Wakeup();
 549              		.loc 1 973 0
 550 001c FFF7FEFF 		bl	EZI2C_Wakeup
 551              	.LVL43:
 974:main.c        ****         
 975:main.c        ****         /* Start the ILO accuracy measurement for accurate scan interval generation */
 976:main.c        ****         CySysClkIloStartMeasurement();
 552              		.loc 1 976 0
 553 0020 FFF7FEFF 		bl	CySysClkIloStartMeasurement
 554              	.LVL44:
 555              	.L37:
 977:main.c        ****     }
 978:main.c        ****     /* Enable interrupts */
 979:main.c        ****     CyExitCriticalSection(interruptState);
 556              		.loc 1 979 0
 557 0024 2000     		movs	r0, r4
 558 0026 FFF7FEFF 		bl	CyExitCriticalSection
 559              	.LVL45:
 980:main.c        **** }
 560              		.loc 1 980 0
 561              		@ sp needed
 562              	.LVL46:
 563 002a 10BD     		pop	{r4, pc}
 564              		.cfi_endproc
 565              	.LFE40:
 566              		.size	enterDeepSleepLowPowerMode, .-enterDeepSleepLowPowerMode
 567              		.section	.text.anyWidgetActive,"ax",%progbits
 568              		.align	2
 569              		.global	anyWidgetActive
 570              		.code	16
 571              		.thumb_func
 572              		.type	anyWidgetActive, %function
 573              	anyWidgetActive:
 574              	.LFB41:
 981:main.c        **** 
 982:main.c        **** /*******************************************************************************
 983:main.c        **** * Function Name: anyWidgetActive
 984:main.c        **** ********************************************************************************
 985:main.c        **** *
 986:main.c        **** * Summary:
 987:main.c        **** *  This API checks if any widget is active
 988:main.c        **** *
 989:main.c        **** * Parameters:
 990:main.c        **** *  None.
 991:main.c        **** *
 992:main.c        **** * Theory: This API checks if any of the LeftClick, RightClick or trackpad sensors
 993:main.c        **** *         are active and returns true if any one of them is active.
 994:main.c        **** *
 995:main.c        **** * Side Effects: None
 996:main.c        **** *
 997:main.c        **** * Note: None
 998:main.c        **** *
 999:main.c        **** *******************************************************************************/
ARM GAS  C:\Users\Asus\AppData\Local\Temp\cc7iUwpi.s 			page 30


1000:main.c        **** 
1001:main.c        **** bool anyWidgetActive(void)
1002:main.c        **** {
 575              		.loc 1 1002 0
 576              		.cfi_startproc
 577              		@ args = 0, pretend = 0, frame = 0
 578              		@ frame_needed = 0, uses_anonymous_args = 0
 579 0000 10B5     		push	{r4, lr}
 580              		.cfi_def_cfa_offset 8
 581              		.cfi_offset 4, -8
 582              		.cfi_offset 14, -4
1003:main.c        ****     /* Check if either trackpad or any of the two button sensors are active */
1004:main.c        ****     if(CapSense_IsWidgetActive(CapSense_TRACKPAD_WDGT_ID) || \
 583              		.loc 1 1004 0
 584 0002 0020     		movs	r0, #0
 585 0004 FFF7FEFF 		bl	CapSense_IsWidgetActive
 586              	.LVL47:
 587 0008 0028     		cmp	r0, #0
 588 000a 0AD1     		bne	.L40
1005:main.c        ****        CapSense_IsWidgetActive(CapSense_LEFTCLICK_WDGT_ID) || \
 589              		.loc 1 1005 0 discriminator 1
 590 000c 0130     		adds	r0, r0, #1
 591 000e FFF7FEFF 		bl	CapSense_IsWidgetActive
 592              	.LVL48:
1004:main.c        ****        CapSense_IsWidgetActive(CapSense_LEFTCLICK_WDGT_ID) || \
 593              		.loc 1 1004 0 discriminator 1
 594 0012 0028     		cmp	r0, #0
 595 0014 07D1     		bne	.L41
1006:main.c        ****        CapSense_IsWidgetActive(CapSense_RIGHTCLICK_WDGT_ID)
 596              		.loc 1 1006 0
 597 0016 0230     		adds	r0, r0, #2
 598 0018 FFF7FEFF 		bl	CapSense_IsWidgetActive
 599              	.LVL49:
1005:main.c        ****        CapSense_IsWidgetActive(CapSense_LEFTCLICK_WDGT_ID) || \
 600              		.loc 1 1005 0
 601 001c 0028     		cmp	r0, #0
 602 001e 04D1     		bne	.L42
 603 0020 04E0     		b	.L39
 604              	.L40:
1007:main.c        ****       )
1008:main.c        ****     {
1009:main.c        ****         return TRUE;
 605              		.loc 1 1009 0
 606 0022 0120     		movs	r0, #1
 607 0024 02E0     		b	.L39
 608              	.L41:
 609 0026 0120     		movs	r0, #1
 610 0028 00E0     		b	.L39
 611              	.L42:
 612 002a 0120     		movs	r0, #1
 613              	.L39:
1010:main.c        ****     }
1011:main.c        ****     else
1012:main.c        ****     {
1013:main.c        ****         return FALSE;
1014:main.c        ****     }
1015:main.c        **** }
ARM GAS  C:\Users\Asus\AppData\Local\Temp\cc7iUwpi.s 			page 31


 614              		.loc 1 1015 0
 615              		@ sp needed
 616 002c 10BD     		pop	{r4, pc}
 617              		.cfi_endproc
 618              	.LFE41:
 619              		.size	anyWidgetActive, .-anyWidgetActive
 620 002e C046     		.section	.text.CalibrateWdtMatchValue,"ax",%progbits
 621              		.align	2
 622              		.global	CalibrateWdtMatchValue
 623              		.code	16
 624              		.thumb_func
 625              		.type	CalibrateWdtMatchValue, %function
 626              	CalibrateWdtMatchValue:
 627              	.LFB42:
1016:main.c        **** 
1017:main.c        **** /*******************************************************************************
1018:main.c        **** * Function Name: CalibrateWdtMatchValue
1019:main.c        **** ********************************************************************************
1020:main.c        **** * Summary: 
1021:main.c        **** *  This function calibrates the match value of the Watchdog Timer 
1022:main.c        **** *
1023:main.c        **** * Parameter:
1024:main.c        **** *  None
1025:main.c        **** *
1026:main.c        **** * Return:
1027:main.c        **** *  void
1028:main.c        **** *
1029:main.c        **** * Theory: The ILO is calibrated using IMO to improve the accuracy of ILO.
1030:main.c        **** *
1031:main.c        **** * Side Effects: None
1032:main.c        **** *
1033:main.c        **** * Note:
1034:main.c        **** *
1035:main.c        **** *******************************************************************************/
1036:main.c        **** void CalibrateWdtMatchValue()
1037:main.c        **** {    
 628              		.loc 1 1037 0
 629              		.cfi_startproc
 630              		@ args = 0, pretend = 0, frame = 8
 631              		@ frame_needed = 0, uses_anonymous_args = 0
 632 0000 00B5     		push	{lr}
 633              		.cfi_def_cfa_offset 4
 634              		.cfi_offset 14, -4
 635 0002 83B0     		sub	sp, sp, #12
 636              		.cfi_def_cfa_offset 16
1038:main.c        ****     /* Contains ILO Trimmed value */
1039:main.c        ****     uint32 tempIloCounts = 0u;
 637              		.loc 1 1039 0
 638 0004 0023     		movs	r3, #0
 639 0006 0193     		str	r3, [sp, #4]
 640              	.LVL50:
1040:main.c        ****     
1041:main.c        ****     /* Contains ILO Trimmed value */
1042:main.c        ****     uint32 desiredDelay = 0;
1043:main.c        ****     
1044:main.c        ****     /* Desired delay for ILO Trimming */
1045:main.c        ****     if(deviceScanMode == FAST_SCAN_MODE)
ARM GAS  C:\Users\Asus\AppData\Local\Temp\cc7iUwpi.s 			page 32


 641              		.loc 1 1045 0
 642 0008 084B     		ldr	r3, .L47
 643 000a 1B78     		ldrb	r3, [r3]
 644 000c 012B     		cmp	r3, #1
 645 000e 02D1     		bne	.L46
1046:main.c        ****     {
1047:main.c        ****         desiredDelay = WDT_TIMEOUT_FAST_SCAN;
 646              		.loc 1 1047 0
 647 0010 C820     		movs	r0, #200
 648 0012 8000     		lsls	r0, r0, #2
 649 0014 00E0     		b	.L44
 650              	.L46:
1048:main.c        ****     }
1049:main.c        ****     else
1050:main.c        ****     {
1051:main.c        ****         desiredDelay = WDT_TIMEOUT_SLOW_SCAN;
 651              		.loc 1 1051 0
 652 0016 0648     		ldr	r0, .L47+4
 653              	.L44:
 654              	.LVL51:
1052:main.c        ****     }
1053:main.c        ****     
1054:main.c        ****     /* Get the ILO compensated counts i.e. the actual counts for the desired ILO frequency 
1055:main.c        **** 	*  Trimming is done to improve ILO accuracy using IMO; ILO default accuracy is +/- 60% 
1056:main.c        ****     */
1057:main.c        ****     if(CYRET_SUCCESS == CySysClkIloCompensate(desiredDelay, &tempIloCounts))
 655              		.loc 1 1057 0
 656 0018 01A9     		add	r1, sp, #4
 657 001a FFF7FEFF 		bl	CySysClkIloCompensate
 658              	.LVL52:
 659 001e 0028     		cmp	r0, #0
 660 0020 02D1     		bne	.L43
1058:main.c        ****     {    
1059:main.c        ****         wdtMatchValue = (uint32)tempIloCounts;
 661              		.loc 1 1059 0
 662 0022 044B     		ldr	r3, .L47+8
 663 0024 019A     		ldr	r2, [sp, #4]
 664 0026 1A60     		str	r2, [r3]
 665              	.L43:
1060:main.c        ****     }    
1061:main.c        **** }
 666              		.loc 1 1061 0
 667 0028 03B0     		add	sp, sp, #12
 668              		@ sp needed
 669 002a 00BD     		pop	{pc}
 670              	.L48:
 671              		.align	2
 672              	.L47:
 673 002c 00000000 		.word	deviceScanMode
 674 0030 70170000 		.word	6000
 675 0034 00000000 		.word	.LANCHOR0
 676              		.cfi_endproc
 677              	.LFE42:
 678              		.size	CalibrateWdtMatchValue, .-CalibrateWdtMatchValue
 679              		.section	.text.WDT_Start,"ax",%progbits
 680              		.align	2
 681              		.global	WDT_Start
ARM GAS  C:\Users\Asus\AppData\Local\Temp\cc7iUwpi.s 			page 33


 682              		.code	16
 683              		.thumb_func
 684              		.type	WDT_Start, %function
 685              	WDT_Start:
 686              	.LFB39:
 906:main.c        ****     /* Setup ISR for watchdog interrupt */
 687              		.loc 1 906 0
 688              		.cfi_startproc
 689              		@ args = 0, pretend = 0, frame = 0
 690              		@ frame_needed = 0, uses_anonymous_args = 0
 691 0000 10B5     		push	{r4, lr}
 692              		.cfi_def_cfa_offset 8
 693              		.cfi_offset 4, -8
 694              		.cfi_offset 14, -4
 908:main.c        ****    
 695              		.loc 1 908 0
 696 0002 0949     		ldr	r1, .L50
 697 0004 0620     		movs	r0, #6
 698 0006 FFF7FEFF 		bl	CyIntSetVector
 699              	.LVL53:
 911:main.c        ****     
 700              		.loc 1 911 0
 701 000a FFF7FEFF 		bl	CalibrateWdtMatchValue
 702              	.LVL54:
 914:main.c        ****     
 703              		.loc 1 914 0
 704 000e FFF7FEFF 		bl	CySysWdtGetCount
 705              	.LVL55:
 706 0012 064B     		ldr	r3, .L50+4
 707 0014 1B68     		ldr	r3, [r3]
 708 0016 C018     		adds	r0, r0, r3
 709 0018 FFF7FEFF 		bl	CySysWdtSetMatch
 710              	.LVL56:
 917:main.c        ****     
 711              		.loc 1 917 0
 712 001c FFF7FEFF 		bl	CySysWdtUnmaskInterrupt
 713              	.LVL57:
 920:main.c        **** }
 714              		.loc 1 920 0
 715 0020 0620     		movs	r0, #6
 716 0022 FFF7FEFF 		bl	CyIntEnable
 717              	.LVL58:
 921:main.c        **** 
 718              		.loc 1 921 0
 719              		@ sp needed
 720 0026 10BD     		pop	{r4, pc}
 721              	.L51:
 722              		.align	2
 723              	.L50:
 724 0028 00000000 		.word	Timer_Interrupt
 725 002c 00000000 		.word	.LANCHOR0
 726              		.cfi_endproc
 727              	.LFE39:
 728              		.size	WDT_Start, .-WDT_Start
 729              		.section	.text.main,"ax",%progbits
 730              		.align	2
 731              		.global	main
ARM GAS  C:\Users\Asus\AppData\Local\Temp\cc7iUwpi.s 			page 34


 732              		.code	16
 733              		.thumb_func
 734              		.type	main, %function
 735              	main:
 736              	.LFB33:
 250:main.c        ****     /* This code implements two application level power modes: 
 737              		.loc 1 250 0
 738              		.cfi_startproc
 739              		@ args = 0, pretend = 0, frame = 0
 740              		@ frame_needed = 0, uses_anonymous_args = 0
 741 0000 F8B5     		push	{r3, r4, r5, r6, r7, lr}
 742              		.cfi_def_cfa_offset 24
 743              		.cfi_offset 3, -24
 744              		.cfi_offset 4, -20
 745              		.cfi_offset 5, -16
 746              		.cfi_offset 6, -12
 747              		.cfi_offset 7, -8
 748              		.cfi_offset 14, -4
 749              	.LVL59:
 270:main.c        ****     
 750              		.loc 1 270 0
 751 0002 0122     		movs	r2, #1
 752 0004 6E4B     		ldr	r3, .L79
 753 0006 1A70     		strb	r2, [r3]
 273:main.c        ****     
 754              		.loc 1 273 0
 755              		.syntax divided
 756              	@ 273 "main.c" 1
 757 0008 62B6     		CPSIE   i
 758              	@ 0 "" 2
 276:main.c        ****     
 759              		.loc 1 276 0
 760              		.thumb
 761              		.syntax unified
 762 000a FFF7FEFF 		bl	i2cInit
 763              	.LVL60:
 279:main.c        ****     
 764              		.loc 1 279 0
 765 000e 6420     		movs	r0, #100
 766 0010 FFF7FEFF 		bl	CyDelay
 767              	.LVL61:
 282:main.c        **** 
 768              		.loc 1 282 0
 769 0014 FFF7FEFF 		bl	capSenseInit
 770              	.LVL62:
 285:main.c        ****    
 771              		.loc 1 285 0
 772 0018 FFF7FEFF 		bl	WDT_Start
 773              	.LVL63:
 261:main.c        ****     
 774              		.loc 1 261 0
 775 001c 0026     		movs	r6, #0
 258:main.c        ****     
 776              		.loc 1 258 0
 777 001e 0027     		movs	r7, #0
 255:main.c        ****     
 778              		.loc 1 255 0
ARM GAS  C:\Users\Asus\AppData\Local\Temp\cc7iUwpi.s 			page 35


 779 0020 0124     		movs	r4, #1
 780 0022 02E0     		b	.L53
 781              	.LVL64:
 782              	.L77:
 408:main.c        **** 
 783              		.loc 1 408 0
 784 0024 0424     		movs	r4, #4
 785 0026 00E0     		b	.L53
 786              	.L78:
 787 0028 0424     		movs	r4, #4
 788              	.LVL65:
 789              	.L53:
 289:main.c        **** 		{
 790              		.loc 1 289 0
 791 002a 022C     		cmp	r4, #2
 792 002c 3ED0     		beq	.L55
 793 002e 02D8     		bhi	.L56
 794 0030 012C     		cmp	r4, #1
 795 0032 06D0     		beq	.L57
 796 0034 BFE0     		b	.L54
 797              	.L56:
 798 0036 032C     		cmp	r4, #3
 799 0038 51D0     		beq	.L58
 800 003a 042C     		cmp	r4, #4
 801 003c 00D1     		bne	.LCB676
 802 003e ACE0     		b	.L59	@long jump
 803              	.LCB676:
 804 0040 B9E0     		b	.L54
 805              	.L57:
 293:main.c        ****                 {
 806              		.loc 1 293 0
 807 0042 FFF7FEFF 		bl	CapSense_IsBusy
 808              	.LVL66:
 809 0046 0028     		cmp	r0, #0
 810 0048 EFD1     		bne	.L53
 301:main.c        ****                     {
 811              		.loc 1 301 0
 812 004a 5D4B     		ldr	r3, .L79
 813 004c 1B78     		ldrb	r3, [r3]
 814 004e 012B     		cmp	r3, #1
 815 0050 21D1     		bne	.L61
 309:main.c        ****                         {
 816              		.loc 1 309 0
 817 0052 002E     		cmp	r6, #0
 818 0054 03D1     		bne	.L62
 312:main.c        ****                             
 819              		.loc 1 312 0
 820 0056 FFF7FEFF 		bl	CapSense_CSDSetupWidget
 821              	.LVL67:
 315:main.c        ****                         }
 822              		.loc 1 315 0
 823 005a 0136     		adds	r6, r6, #1
 824 005c 22E0     		b	.L63
 825              	.LVL68:
 826              	.L62:
 317:main.c        ****                         {
 827              		.loc 1 317 0
ARM GAS  C:\Users\Asus\AppData\Local\Temp\cc7iUwpi.s 			page 36


 828 005e 012E     		cmp	r6, #1
 829 0060 04D1     		bne	.L64
 320:main.c        ****                             
 830              		.loc 1 320 0
 831 0062 0120     		movs	r0, #1
 832 0064 FFF7FEFF 		bl	CapSense_CSDSetupWidget
 833              	.LVL69:
 323:main.c        ****                         }
 834              		.loc 1 323 0
 835 0068 0136     		adds	r6, r6, #1
 836 006a 1BE0     		b	.L63
 837              	.LVL70:
 838              	.L64:
 325:main.c        ****                         {
 839              		.loc 1 325 0
 840 006c 022E     		cmp	r6, #2
 841 006e 0DD1     		bne	.L65
 328:main.c        ****                             
 842              		.loc 1 328 0
 843 0070 0220     		movs	r0, #2
 844 0072 FFF7FEFF 		bl	CapSense_CSDSetupWidget
 845              	.LVL71:
 332:main.c        ****                             {
 846              		.loc 1 332 0
 847 0076 0320     		movs	r0, #3
 848 0078 FFF7FEFF 		bl	CapSense_IsWidgetActive
 849              	.LVL72:
 850 007c 0028     		cmp	r0, #0
 851 007e 0ED0     		beq	.L73
 332:main.c        ****                             {
 852              		.loc 1 332 0 is_stmt 0 discriminator 1
 853 0080 FFF7FEFF 		bl	anyWidgetActive
 854              	.LVL73:
 855 0084 0028     		cmp	r0, #0
 856 0086 0CD1     		bne	.L74
 334:main.c        ****                             }
 857              		.loc 1 334 0 is_stmt 1
 858 0088 0136     		adds	r6, r6, #1
 859              	.LVL74:
 860 008a 0BE0     		b	.L63
 861              	.LVL75:
 862              	.L65:
 347:main.c        ****                             
 863              		.loc 1 347 0
 864 008c 0320     		movs	r0, #3
 865 008e FFF7FEFF 		bl	CapSense_CSDSetupWidget
 866              	.LVL76:
 350:main.c        ****                         }
 867              		.loc 1 350 0
 868 0092 0026     		movs	r6, #0
 869 0094 06E0     		b	.L63
 870              	.LVL77:
 871              	.L61:
 357:main.c        ****                     }
 872              		.loc 1 357 0
 873 0096 0320     		movs	r0, #3
 874 0098 FFF7FEFF 		bl	CapSense_CSDSetupWidget
ARM GAS  C:\Users\Asus\AppData\Local\Temp\cc7iUwpi.s 			page 37


 875              	.LVL78:
 876 009c 02E0     		b	.L63
 877              	.L73:
 340:main.c        ****                             }
 878              		.loc 1 340 0
 879 009e 0026     		movs	r6, #0
 880              	.LVL79:
 881 00a0 00E0     		b	.L63
 882              	.LVL80:
 883              	.L74:
 884 00a2 0026     		movs	r6, #0
 885              	.LVL81:
 886              	.L63:
 361:main.c        ****                     
 887              		.loc 1 361 0
 888 00a4 FFF7FEFF 		bl	CapSense_Scan
 889              	.LVL82:
 364:main.c        ****                 }
 890              		.loc 1 364 0
 891 00a8 0224     		movs	r4, #2
 892 00aa BEE7     		b	.L53
 893              	.LVL83:
 894              	.L55:
 377:main.c        ****                             
 895              		.loc 1 377 0
 896 00ac FFF7FEFF 		bl	CyEnterCriticalSection
 897              	.LVL84:
 898 00b0 0500     		movs	r5, r0
 899              	.LVL85:
 380:main.c        ****                 {
 900              		.loc 1 380 0
 901 00b2 FFF7FEFF 		bl	CapSense_IsBusy
 902              	.LVL86:
 903 00b6 0028     		cmp	r0, #0
 904 00b8 02D0     		beq	.L66
 383:main.c        ****                 }
 905              		.loc 1 383 0
 906 00ba FFF7FEFF 		bl	CySysPmSleep
 907              	.LVL87:
 908 00be 0AE0     		b	.L67
 909              	.L66:
 389:main.c        ****                     {
 910              		.loc 1 389 0
 911 00c0 3F4B     		ldr	r3, .L79
 912 00c2 1B78     		ldrb	r3, [r3]
 913 00c4 012B     		cmp	r3, #1
 914 00c6 03D1     		bne	.L75
 389:main.c        ****                     {
 915              		.loc 1 389 0 is_stmt 0 discriminator 1
 916 00c8 002E     		cmp	r6, #0
 917 00ca 03D1     		bne	.L76
 399:main.c        ****                     }
 918              		.loc 1 399 0 is_stmt 1
 919 00cc 0324     		movs	r4, #3
 920              	.LVL88:
 921 00ce 02E0     		b	.L67
 922              	.LVL89:
ARM GAS  C:\Users\Asus\AppData\Local\Temp\cc7iUwpi.s 			page 38


 923              	.L75:
 924 00d0 0324     		movs	r4, #3
 925              	.LVL90:
 926 00d2 00E0     		b	.L67
 927              	.LVL91:
 928              	.L76:
 391:main.c        ****                     }
 929              		.loc 1 391 0
 930 00d4 0124     		movs	r4, #1
 931              	.LVL92:
 932              	.L67:
 403:main.c        ****             break;
 933              		.loc 1 403 0
 934 00d6 2800     		movs	r0, r5
 935 00d8 FFF7FEFF 		bl	CyExitCriticalSection
 936              	.LVL93:
 404:main.c        ****             
 937              		.loc 1 404 0
 938 00dc A5E7     		b	.L53
 939              	.LVL94:
 940              	.L58:
 410:main.c        ****                 {
 941              		.loc 1 410 0
 942 00de 384B     		ldr	r3, .L79
 943 00e0 1B78     		ldrb	r3, [r3]
 944 00e2 012B     		cmp	r3, #1
 945 00e4 45D1     		bne	.L68
 416:main.c        ****                     CapSense_ProcessWidget(CapSense_LEFTCLICK_WDGT_ID);
 946              		.loc 1 416 0
 947 00e6 0020     		movs	r0, #0
 948 00e8 FFF7FEFF 		bl	CapSense_ProcessWidget
 949              	.LVL95:
 417:main.c        ****                     CapSense_ProcessWidget(CapSense_RIGHTCLICK_WDGT_ID);
 950              		.loc 1 417 0
 951 00ec 0120     		movs	r0, #1
 952 00ee FFF7FEFF 		bl	CapSense_ProcessWidget
 953              	.LVL96:
 418:main.c        ****                     
 954              		.loc 1 418 0
 955 00f2 0220     		movs	r0, #2
 956 00f4 FFF7FEFF 		bl	CapSense_ProcessWidget
 957              	.LVL97:
 423:main.c        ****                        CapSense_ProcessWidget(CapSense_GANGEDSENSOR_WDGT_ID);
 958              		.loc 1 423 0
 959 00f8 FFF7FEFF 		bl	anyWidgetActive
 960              	.LVL98:
 961 00fc 0028     		cmp	r0, #0
 962 00fe 07D1     		bne	.L69
 423:main.c        ****                        CapSense_ProcessWidget(CapSense_GANGEDSENSOR_WDGT_ID);
 963              		.loc 1 423 0 is_stmt 0 discriminator 1
 964 0100 0330     		adds	r0, r0, #3
 965 0102 FFF7FEFF 		bl	CapSense_IsWidgetActive
 966              	.LVL99:
 967 0106 0028     		cmp	r0, #0
 968 0108 02D0     		beq	.L69
 424:main.c        ****                     
 969              		.loc 1 424 0 is_stmt 1
ARM GAS  C:\Users\Asus\AppData\Local\Temp\cc7iUwpi.s 			page 39


 970 010a 0320     		movs	r0, #3
 971 010c FFF7FEFF 		bl	CapSense_ProcessWidget
 972              	.LVL100:
 973              	.L69:
 427:main.c        ****                     
 974              		.loc 1 427 0
 975 0110 0020     		movs	r0, #0
 976 0112 FFF7FEFF 		bl	CapSense_IsWidgetActive
 977              	.LVL101:
 978 0116 80B2     		uxth	r0, r0
 979 0118 2A4B     		ldr	r3, .L79+4
 980 011a 1880     		strh	r0, [r3]
 430:main.c        **** 					{
 981              		.loc 1 430 0
 982 011c 0128     		cmp	r0, #1
 983 011e 07D1     		bne	.L70
 432:main.c        ****                         
 984              		.loc 1 432 0
 985 0120 0020     		movs	r0, #0
 986 0122 FFF7FEFF 		bl	CapSense_GetXYCoordinates
 987              	.LVL102:
 435:main.c        ****     					touchPosition[Y_POSITION] = HI16 (tempCoordinates);
 988              		.loc 1 435 0
 989 0126 284B     		ldr	r3, .L79+8
 990 0128 1880     		strh	r0, [r3]
 436:main.c        **** 					}
 991              		.loc 1 436 0
 992 012a 000C     		lsrs	r0, r0, #16
 993              	.LVL103:
 994 012c 5880     		strh	r0, [r3, #2]
 995 012e 03E0     		b	.L71
 996              	.L70:
 443:main.c        **** 						touchPosition[Y_POSITION] = 0u;
 997              		.loc 1 443 0
 998 0130 254B     		ldr	r3, .L79+8
 999 0132 0022     		movs	r2, #0
 1000 0134 1A80     		strh	r2, [r3]
 444:main.c        ****                     }
 1001              		.loc 1 444 0
 1002 0136 5A80     		strh	r2, [r3, #2]
 1003              	.L71:
 448:main.c        ****                     
 1004              		.loc 1 448 0
 1005 0138 FFF7FEFF 		bl	mouseDataProcess
 1006              	.LVL104:
 451:main.c        ****                         
 1007              		.loc 1 451 0
 1008 013c FFF7FEFF 		bl	updateI2cBuffer
 1009              	.LVL105:
 454:main.c        ****                     {
 1010              		.loc 1 454 0
 1011 0140 FFF7FEFF 		bl	CapSense_IsAnyWidgetActive
 1012              	.LVL106:
 1013 0144 0028     		cmp	r0, #0
 1014 0146 0ED1     		bne	.L72
 457:main.c        ****                         
 1015              		.loc 1 457 0
ARM GAS  C:\Users\Asus\AppData\Local\Temp\cc7iUwpi.s 			page 40


 1016 0148 0130     		adds	r0, r0, #1
 1017 014a FFF7FEFF 		bl	Red_LED_Write
 1018              	.LVL107:
 460:main.c        ****                         
 1019              		.loc 1 460 0
 1020 014e 0137     		adds	r7, r7, #1
 1021              	.LVL108:
 463:main.c        ****                         {
 1022              		.loc 1 463 0
 1023 0150 952F     		cmp	r7, #149
 1024 0152 00D8     		bhi	.LCB894
 1025 0154 66E7     		b	.L77	@long jump
 1026              	.LCB894:
 466:main.c        **** 
 1027              		.loc 1 466 0
 1028 0156 1D4A     		ldr	r2, .L79+12
 1029 0158 1D4B     		ldr	r3, .L79+16
 1030 015a 1A60     		str	r2, [r3]
 469:main.c        ****                         }
 1031              		.loc 1 469 0
 1032 015c 0022     		movs	r2, #0
 1033 015e 184B     		ldr	r3, .L79
 1034 0160 1A70     		strb	r2, [r3]
 408:main.c        **** 
 1035              		.loc 1 408 0
 1036 0162 0424     		movs	r4, #4
 1037 0164 61E7     		b	.L53
 1038              	.L72:
 475:main.c        ****                         
 1039              		.loc 1 475 0
 1040 0166 0020     		movs	r0, #0
 1041 0168 FFF7FEFF 		bl	Red_LED_Write
 1042              	.LVL109:
 478:main.c        ****                     }
 1043              		.loc 1 478 0
 1044 016c 0027     		movs	r7, #0
 408:main.c        **** 
 1045              		.loc 1 408 0
 1046 016e 0424     		movs	r4, #4
 1047 0170 5BE7     		b	.L53
 1048              	.LVL110:
 1049              	.L68:
 485:main.c        **** 
 1050              		.loc 1 485 0
 1051 0172 0320     		movs	r0, #3
 1052 0174 FFF7FEFF 		bl	CapSense_ProcessWidget
 1053              	.LVL111:
 488:main.c        ****                     {
 1054              		.loc 1 488 0
 1055 0178 0320     		movs	r0, #3
 1056 017a FFF7FEFF 		bl	CapSense_IsWidgetActive
 1057              	.LVL112:
 1058 017e 0028     		cmp	r0, #0
 1059 0180 00D1     		bne	.LCB925
 1060 0182 51E7     		b	.L78	@long jump
 1061              	.LCB925:
 491:main.c        **** 
ARM GAS  C:\Users\Asus\AppData\Local\Temp\cc7iUwpi.s 			page 41


 1062              		.loc 1 491 0
 1063 0184 C822     		movs	r2, #200
 1064 0186 9200     		lsls	r2, r2, #2
 1065 0188 114B     		ldr	r3, .L79+16
 1066 018a 1A60     		str	r2, [r3]
 1067              	.LVL113:
 497:main.c        **** 
 1068              		.loc 1 497 0
 1069 018c 0122     		movs	r2, #1
 1070 018e 0C4B     		ldr	r3, .L79
 1071 0190 1A70     		strb	r2, [r3]
 1072              	.LVL114:
 500:main.c        **** 
 1073              		.loc 1 500 0
 1074 0192 0026     		movs	r6, #0
 494:main.c        **** 
 1075              		.loc 1 494 0
 1076 0194 0027     		movs	r7, #0
 503:main.c        ****                     }
 1077              		.loc 1 503 0
 1078 0196 0124     		movs	r4, #1
 1079 0198 47E7     		b	.L53
 1080              	.LVL115:
 1081              	.L59:
 511:main.c        ****                 
 1082              		.loc 1 511 0
 1083 019a FFF7FEFF 		bl	enterDeepSleepLowPowerMode
 1084              	.LVL116:
 518:main.c        ****                 {                    
 1085              		.loc 1 518 0
 1086 019e 0D4B     		ldr	r3, .L79+20
 1087 01a0 1B78     		ldrb	r3, [r3]
 1088 01a2 002B     		cmp	r3, #0
 1089 01a4 00D1     		bne	.LCB952
 1090 01a6 40E7     		b	.L53	@long jump
 1091              	.LCB952:
 1092              	.LVL117:
 523:main.c        ****                     
 1093              		.loc 1 523 0
 1094 01a8 0022     		movs	r2, #0
 1095 01aa 0A4B     		ldr	r3, .L79+20
 1096 01ac 1A70     		strb	r2, [r3]
 526:main.c        ****                 }
 1097              		.loc 1 526 0
 1098 01ae FFF7FEFF 		bl	CalibrateWdtMatchValue
 1099              	.LVL118:
 521:main.c        ****                     
 1100              		.loc 1 521 0
 1101 01b2 0124     		movs	r4, #1
 1102 01b4 39E7     		b	.L53
 1103              	.LVL119:
 1104              	.L54:
 533:main.c        ****             break;
 1105              		.loc 1 533 0 discriminator 1
 1106 01b6 0020     		movs	r0, #0
 1107 01b8 FFF7FEFF 		bl	CyHalt
 1108              	.LVL120:
ARM GAS  C:\Users\Asus\AppData\Local\Temp\cc7iUwpi.s 			page 42


 534:main.c        ****         }
 1109              		.loc 1 534 0 discriminator 1
 1110 01bc 35E7     		b	.L53
 1111              	.L80:
 1112 01be C046     		.align	2
 1113              	.L79:
 1114 01c0 00000000 		.word	deviceScanMode
 1115 01c4 00000000 		.word	fingerStatus
 1116 01c8 00000000 		.word	touchPosition
 1117 01cc 70170000 		.word	6000
 1118 01d0 00000000 		.word	.LANCHOR0
 1119 01d4 00000000 		.word	.LANCHOR1
 1120              		.cfi_endproc
 1121              	.LFE33:
 1122              		.size	main, .-main
 1123              		.global	wdtMatchValue
 1124              		.global	wdtInterruptOccured
 1125              		.comm	ezI2cBuffer,16,4
 1126              		.comm	mouseClickData,1,1
 1127              		.comm	xyDirectionData,1,1
 1128              		.comm	diffPosition,4,4
 1129              		.comm	prevTouchPosition,4,4
 1130              		.comm	touchPosition,4,4
 1131              		.comm	fingerStatus,2,2
 1132              		.comm	deviceScanMode,1,1
 1133              		.data
 1134              		.align	2
 1135              		.set	.LANCHOR0,. + 0
 1136              		.type	wdtMatchValue, %object
 1137              		.size	wdtMatchValue, 4
 1138              	wdtMatchValue:
 1139 0000 20030000 		.word	800
 1140              		.bss
 1141              		.set	.LANCHOR1,. + 0
 1142              		.type	wdtInterruptOccured, %object
 1143              		.size	wdtInterruptOccured, 1
 1144              	wdtInterruptOccured:
 1145 0000 00       		.space	1
 1146              		.type	prevfingerStatus.5892, %object
 1147              		.size	prevfingerStatus.5892, 1
 1148              	prevfingerStatus.5892:
 1149 0001 00       		.space	1
 1150              		.type	prevLeftClick.5888, %object
 1151              		.size	prevLeftClick.5888, 1
 1152              	prevLeftClick.5888:
 1153 0002 00       		.space	1
 1154              		.type	prevRightClick.5890, %object
 1155              		.size	prevRightClick.5890, 1
 1156              	prevRightClick.5890:
 1157 0003 00       		.space	1
 1158              		.type	resetDone.5902, %object
 1159              		.size	resetDone.5902, 1
 1160              	resetDone.5902:
 1161 0004 00       		.space	1
 1162              		.text
 1163              	.Letext0:
 1164              		.file 2 "Generated_Source\\PSoC4/cytypes.h"
ARM GAS  C:\Users\Asus\AppData\Local\Temp\cc7iUwpi.s 			page 43


 1165              		.file 3 "Generated_Source\\PSoC4/CyLFClk.h"
 1166              		.file 4 "Generated_Source\\PSoC4/CapSense_Control.h"
 1167              		.file 5 "Generated_Source\\PSoC4/CapSense_Structure.h"
 1168              		.file 6 "Generated_Source\\PSoC4/EZI2C.h"
 1169              		.file 7 "Generated_Source\\PSoC4/EZI2C_EZI2C.h"
 1170              		.file 8 "Generated_Source\\PSoC4/CyLib.h"
 1171              		.file 9 "Generated_Source\\PSoC4/cyPm.h"
 1172              		.file 10 "Generated_Source\\PSoC4/CapSense_Sensing.h"
 1173              		.file 11 "Generated_Source\\PSoC4/CapSense_SensingCSD_LL.h"
 1174              		.file 12 "Generated_Source\\PSoC4/Red_LED.h"